

Microchip MPLAB XC8 Assembler V2.45 build 20230818022343 
                                                                                               Fri Oct 25 22:40:42 2024

Microchip MPLAB XC8 C Compiler v2.45 (Free license) build 20230818022343 Og1 
     1                           	processor	18F4620
     2                           	fnconf	rparam,??,?,0
     3                           	pagewidth 120
     4                           	opt	flic
     5                           	psect	idataCOMRAM,global,class=CODE,delta=1,noexec
     6                           	psect	smallconst,global,reloc=2,class=SMALLCONST,delta=1,noexec
     7                           	psect	nvCOMRAM,global,class=COMRAM,space=1,delta=1,lowdata,noexec
     8                           	psect	cinit,global,reloc=2,class=CODE,delta=1
     9                           	psect	bssCOMRAM,global,class=COMRAM,space=1,delta=1,lowdata,noexec
    10                           	psect	dataCOMRAM,global,class=COMRAM,space=1,delta=1,lowdata,noexec
    11                           	psect	cstackCOMRAM,global,class=COMRAM,space=1,delta=1,lowdata,noexec
    12                           	psect	text0,global,reloc=2,class=CODE,delta=1
    13                           	psect	text1,global,reloc=2,class=CODE,delta=1
    14                           	psect	text2,global,reloc=2,class=CODE,delta=1
    15                           	psect	text3,global,reloc=2,class=CODE,delta=1
    16                           	psect	text4,global,reloc=2,class=CODE,delta=1
    17                           	psect	text5,global,reloc=2,class=CODE,delta=1
    18                           	psect	text6,global,reloc=2,class=CODE,delta=1
    19                           	psect	text7,global,reloc=2,class=CODE,delta=1
    20                           	psect	text8,global,reloc=2,class=CODE,delta=1
    21                           	psect	text9,global,reloc=2,class=CODE,delta=1
    22                           	psect	text10,global,reloc=2,class=CODE,delta=1
    23                           	psect	text11,global,reloc=2,class=CODE,delta=1
    24                           	psect	text12,global,reloc=2,class=CODE,delta=1
    25                           	psect	text13,global,reloc=2,class=CODE,delta=1
    26                           	psect	text14,global,reloc=2,class=CODE,delta=1
    27                           	psect	text15,global,reloc=2,class=CODE,delta=1
    28                           	psect	text16,global,reloc=2,class=CODE,delta=1
    29                           	psect	text17,global,reloc=2,class=CODE,delta=1
    30                           	psect	text18,global,reloc=2,class=CODE,delta=1
    31                           	psect	text19,global,reloc=2,class=CODE,delta=1
    32                           	psect	text20,global,reloc=2,class=CODE,delta=1
    33                           	psect	text21,global,reloc=2,class=CODE,delta=1
    34                           	psect	text22,global,reloc=2,class=CODE,delta=1
    35                           	psect	intcode,global,reloc=2,class=CODE,delta=1
    36                           	psect	intcode_body,global,reloc=2,class=CODE,delta=1
    37                           	psect	text24,global,reloc=2,class=CODE,delta=1
    38                           	psect	text25,global,reloc=2,class=CODE,delta=1
    39                           	psect	text26,global,reloc=2,class=CODE,delta=1
    40                           	psect	text27,global,reloc=2,class=CODE,delta=1
    41                           	psect	text28,global,reloc=2,class=CODE,delta=1
    42                           	psect	text29,global,reloc=2,class=CODE,delta=1
    43                           	psect	text30,global,reloc=2,class=CODE,delta=1
    44                           	psect	text31,global,reloc=2,class=CODE,delta=1
    45                           	psect	text32,global,reloc=2,class=CODE,delta=1
    46                           	psect	intsave_regs,global,class=BIGRAM,space=1,delta=1,noexec
    47                           	psect	text33,global,reloc=2,class=CODE,delta=1
    48                           	psect	rparam,global,class=COMRAM,space=1,delta=1,noexec
    49                           	psect	temp,global,ovrld,common,class=COMRAM,space=1,delta=1
    50                           	psect	idloc,global,abs,ovrld,class=IDLOC,space=5,delta=1,noexec
    51                           	psect	config,global,abs,ovrld,class=CONFIG,space=4,delta=1,noexec
    52   000000                     
    53                           ; Version 2.40
    54                           ; Generated 17/11/2021 GMT
    55                           ; 
    56                           ; Copyright © 2021, Microchip Technology Inc. and its subsidiaries ("Microchip")
    57                           ; All rights reserved.
    58                           ; 
    59                           ; This software is developed by Microchip Technology Inc. and its subsidiaries ("Microch
      +                          ip").
    60                           ; 
    61                           ; Redistribution and use in source and binary forms, with or without modification, are
    62                           ; permitted provided that the following conditions are met:
    63                           ; 
    64                           ;     1. Redistributions of source code must retain the above copyright notice, this lis
      +                          t of
    65                           ;        conditions and the following disclaimer.
    66                           ; 
    67                           ;     2. Redistributions in binary form must reproduce the above copyright notice, this 
      +                          list
    68                           ;        of conditions and the following disclaimer in the documentation and/or other
    69                           ;        materials provided with the distribution. Publication is not required when
    70                           ;        this file is used in an embedded application.
    71                           ; 
    72                           ;     3. Microchip's name may not be used to endorse or promote products derived from th
      +                          is
    73                           ;        software without specific prior written permission.
    74                           ; 
    75                           ; THIS SOFTWARE IS PROVIDED BY MICROCHIP "AS IS" AND ANY EXPRESS OR IMPLIED WARRANTIES,
    76                           ; INCLUDING, BUT NOT LIMITED TO, THE IMPLIED WARRANTIES OF MERCHANTABILITY AND FITNESS F
      +                          OR
    77                           ; PURPOSE ARE DISCLAIMED.  IN NO EVENT SHALL MICROCHIP BE LIABLE FOR ANY DIRECT, INDIREC
      +                          T,
    78                           ; INCIDENTAL, SPECIAL, EXEMPLARY, OR CONSEQUENTIAL DAMAGES (INCLUDING BUT NOT LIMITED TO
    79                           ; PROCUREMENT OF SUBSTITUTE GOODS OR SERVICES; LOSS OF USE, DATA OR PROFITS; OR BUSINESS
    80                           ; INTERRUPTION) HOWSOEVER CAUSED AND ON ANY THEORY OF LIABILITY, WHETHER IN CONTRACT, ST
      +                          RICT
    81                           ; LIABILITY, OR TORT (INCLUDING NEGLIGENCE OR OTHERWISE) ARISING IN ANY WAY OUT OF THE U
      +                          SE OF
    82                           ; THIS SOFTWARE, EVEN IF ADVISED OF THE POSSIBILITY OF SUCH DAMAGE.
    83                           ; 
    84                           ; 
    85                           ; Code-generator required, PIC18F4620 Definitions
    86                           ; 
    87                           ; SFR Addresses
    88   000000                     
    89                           	psect	idataCOMRAM
    90   001C46                     __pidataCOMRAM:
    91                           	callstack 0
    92                           
    93                           ;initializer for _port_reg
    94   001C46  80                 	db	128
    95   001C47  0F                 	db	15
    96   001C48  81                 	db	129
    97   001C49  0F                 	db	15
    98   001C4A  82                 	db	130
    99   001C4B  0F                 	db	15
   100   001C4C  83                 	db	131
   101   001C4D  0F                 	db	15
   102   001C4E  84                 	db	132
   103   001C4F  0F                 	db	15
   104                           
   105                           ;initializer for _lat_reg
   106   001C50  89                 	db	137
   107   001C51  0F                 	db	15
   108   001C52  8A                 	db	138
   109   001C53  0F                 	db	15
   110   001C54  8B                 	db	139
   111   001C55  0F                 	db	15
   112   001C56  8C                 	db	140
   113   001C57  0F                 	db	15
   114   001C58  8D                 	db	141
   115   001C59  0F                 	db	15
   116                           
   117                           ;initializer for _tris_reg
   118   001C5A  92                 	db	146
   119   001C5B  0F                 	db	15
   120   001C5C  93                 	db	147
   121   001C5D  0F                 	db	15
   122   001C5E  94                 	db	148
   123   001C5F  0F                 	db	15
   124   001C60  95                 	db	149
   125   001C61  0F                 	db	15
   126   001C62  96                 	db	150
   127   001C63  0F                 	db	15
   128                           
   129                           ;initializer for _RB7_Flag
   130   001C64  01                 	db	1
   131                           
   132                           ;initializer for _RB6_Flag
   133   001C65  01                 	db	1
   134                           
   135                           ;initializer for _RB5_Flag
   136   001C66  01                 	db	1
   137                           
   138                           ;initializer for _RB4_Flag
   139   001C67  01                 	db	1
   140                           
   141                           ;initializer for _int0_obj
   142   001C68  41                 	db	65
   143   001C69  01                 	db	1
   144   001C6A  00                 	db	0
   145   001C6B  01                 	db	1
   146   001C6C  1A                 	db	low _ISR_INT0_App
   147   001C6D  1C                 	db	high _ISR_INT0_App
   148                           
   149                           ;initializer for _led_2
   150   001C6E  0A                 	db	10
   151                           
   152                           ;initializer for _led_1
   153   001C6F  02                 	db	2
   154                           
   155                           	psect	smallconst
   156   001000                     __psmallconst:
   157                           	callstack 0
   158   001000  00                 	db	0
   159   001001                     _keypad_buttons:
   160                           	callstack 0
   161   001001  37                 	db	55
   162   001002  38                 	db	56
   163   001003  39                 	db	57
   164   001004  2F                 	db	47
   165   001005  34                 	db	52
   166   001006  35                 	db	53
   167   001007  36                 	db	54
   168   001008  2A                 	db	42
   169   001009  31                 	db	49
   170   00100A  32                 	db	50
   171   00100B  33                 	db	51
   172   00100C  2D                 	db	45
   173   00100D  23                 	db	35
   174   00100E  30                 	db	48
   175   00100F  3D                 	db	61
   176   001010  2B                 	db	43
   177   001011                     __end_of_keypad_buttons:
   178                           	callstack 0
   179   000000                     _EECON2	set	4007
   180   000000                     _INTCON2bits	set	4081
   181   001011                     STR_1:
   182   001011  25                 	db	37
   183   001012  69                 	db	105	;'i'
   184   001013  00                 	db	0
   185   001014  00                 	db	0	; dummy byte at the end
   186   000000                     
   187                           	psect	nvCOMRAM
   188   00005F                     __pnvCOMRAM:
   189                           	callstack 0
   190   00005F                     _ret:
   191                           	callstack 0
   192   00005F                     	ds	1
   193   000000                     _PORTBbits	set	3969
   194   000000                     _PORTE	set	3972
   195   000000                     _PORTD	set	3971
   196   000000                     _PORTC	set	3970
   197   000000                     _PORTB	set	3969
   198   000000                     _PORTA	set	3968
   199   000000                     _LATA	set	3977
   200   000000                     _TRISA	set	3986
   201   000000                     _EECON1bits	set	4006
   202   000000                     _EEDATA	set	4008
   203   000000                     _EEADR	set	4009
   204   000000                     _EEADRH	set	4010
   205   000000                     _INTCON3bits	set	4080
   206   000000                     _INTCONbits	set	4082
   207   000000                     _TRISE	set	3990
   208   000000                     _TRISD	set	3989
   209   000000                     _TRISC	set	3988
   210   000000                     _TRISB	set	3987
   211   000000                     _LATE	set	3981
   212   000000                     _LATD	set	3980
   213   000000                     _LATC	set	3979
   214   000000                     _LATB	set	3978
   215                           
   216                           ; #config settings
   217                           
   218                           	psect	cinit
   219   001B5A                     __pcinit:
   220                           	callstack 0
   221   001B5A                     start_initialization:
   222                           	callstack 0
   223   001B5A                     __initialization:
   224                           	callstack 0
   225                           
   226                           ; Initialize objects allocated to COMRAM (42 bytes)
   227                           ; load TBLPTR registers with __pidataCOMRAM
   228   001B5A  0E46               	movlw	low __pidataCOMRAM
   229   001B5C  6EF6               	movwf	tblptrl,c
   230   001B5E  0E1C               	movlw	high __pidataCOMRAM
   231   001B60  6EF7               	movwf	tblptrh,c
   232   001B62  0E00               	movlw	low (__pidataCOMRAM shr (0+16))
   233   001B64  6EF8               	movwf	tblptru,c
   234   001B66  EE00  F001         	lfsr	0,__pdataCOMRAM
   235   001B6A  EE10 F02A          	lfsr	1,42
   236   001B6E                     copy_data0:
   237   001B6E  0009               	tblrd		*+
   238   001B70  CFF5 FFEE          	movff	tablat,postinc0
   239   001B74  50E5               	movf	postdec1,w,c
   240   001B76  50E1               	movf	fsr1l,w,c
   241   001B78  E1FA               	bnz	copy_data0
   242                           
   243                           ; Clear objects allocated to COMRAM (32 bytes)
   244   001B7A  EE00  F02B         	lfsr	0,__pbssCOMRAM
   245   001B7E  0E20               	movlw	32
   246   001B80                     clear_0:
   247   001B80  6AEE               	clrf	postinc0,c
   248   001B82  06E8               	decf	wreg,f,c
   249   001B84  E1FD               	bnz	clear_0
   250   001B86                     end_of_initialization:
   251                           	callstack 0
   252   001B86                     __end_of__initialization:
   253                           	callstack 0
   254   001B86  9060               	bcf	int$flags,0,c	;clear compiler interrupt flag (level 1)
   255   001B88  9260               	bcf	int$flags,1,c	;clear compiler interrupt flag (level 2)
   256   001B8A  0100               	movlb	0
   257   001B8C  EF17  F00D         	goto	_main	;jump to C main() function
   258                           
   259                           	psect	bssCOMRAM
   260   00002B                     __pbssCOMRAM:
   261                           	callstack 0
   262   00002B                     _RB7_Low_InterruptHandler:
   263                           	callstack 0
   264   00002B                     	ds	2
   265   00002D                     _RB7_High_InterruptHandler:
   266                           	callstack 0
   267   00002D                     	ds	2
   268   00002F                     _RB6_Low_InterruptHandler:
   269                           	callstack 0
   270   00002F                     	ds	2
   271   000031                     _RB6_High_InterruptHandler:
   272                           	callstack 0
   273   000031                     	ds	2
   274   000033                     _RB5_Low_InterruptHandler:
   275                           	callstack 0
   276   000033                     	ds	2
   277   000035                     _RB5_High_InterruptHandler:
   278                           	callstack 0
   279   000035                     	ds	2
   280   000037                     _RB4_Low_InterruptHandler:
   281                           	callstack 0
   282   000037                     	ds	2
   283   000039                     _RB4_High_InterruptHandler:
   284                           	callstack 0
   285   000039                     	ds	2
   286   00003B                     _INT2_InterruptHandler:
   287                           	callstack 0
   288   00003B                     	ds	2
   289   00003D                     _INT1_InterruptHandler:
   290                           	callstack 0
   291   00003D                     	ds	2
   292   00003F                     _INT0_InterruptHandler:
   293                           	callstack 0
   294   00003F                     	ds	2
   295   000041                     _eeprom_data:
   296                           	callstack 0
   297   000041                     	ds	1
   298   000042                     relay_toggle@F3072:
   299                           	callstack 0
   300   000042                     	ds	1
   301   000043                     relay_off@F3067:
   302                           	callstack 0
   303   000043                     	ds	1
   304   000044                     relay_on@F3062:
   305                           	callstack 0
   306   000044                     	ds	1
   307   000045                     relay_init@F3057:
   308                           	callstack 0
   309   000045                     	ds	1
   310   000046                     led_toggle@F3077:
   311                           	callstack 0
   312   000046                     	ds	1
   313   000047                     led_off@F3072:
   314                           	callstack 0
   315   000047                     	ds	1
   316   000048                     led_on@F3067:
   317                           	callstack 0
   318   000048                     	ds	1
   319   000049                     led_init@F3062:
   320                           	callstack 0
   321   000049                     	ds	1
   322   00004A                     _prog_selected:
   323                           	callstack 0
   324   00004A                     	ds	1
   325                           
   326                           	psect	dataCOMRAM
   327   000001                     __pdataCOMRAM:
   328                           	callstack 0
   329   000001                     _port_reg:
   330                           	callstack 0
   331   000001                     	ds	10
   332   00000B                     _lat_reg:
   333                           	callstack 0
   334   00000B                     	ds	10
   335   000015                     _tris_reg:
   336                           	callstack 0
   337   000015                     	ds	10
   338   00001F                     _RB7_Flag:
   339                           	callstack 0
   340   00001F                     	ds	1
   341   000020                     _RB6_Flag:
   342                           	callstack 0
   343   000020                     	ds	1
   344   000021                     _RB5_Flag:
   345                           	callstack 0
   346   000021                     	ds	1
   347   000022                     _RB4_Flag:
   348                           	callstack 0
   349   000022                     	ds	1
   350   000023                     _int0_obj:
   351                           	callstack 0
   352   000023                     	ds	6
   353   000029                     _led_2:
   354                           	callstack 0
   355   000029                     	ds	1
   356   00002A                     _led_1:
   357                           	callstack 0
   358   00002A                     	ds	1
   359                           
   360                           	psect	cstackCOMRAM
   361   00004B                     __pcstackCOMRAM:
   362                           	callstack 0
   363   00004B                     RB4_ISR@state:
   364                           	callstack 0
   365   00004B                     RB5_ISR@state:
   366                           	callstack 0
   367   00004B                     RB6_ISR@state:
   368                           	callstack 0
   369   00004B                     RB7_ISR@state:
   370                           	callstack 0
   371   00004B                     eeprom_write_data@addr:
   372                           	callstack 0
   373                           
   374                           ; 2 bytes @ 0x0
   375   00004B                     	ds	2
   376   00004D                     eeprom_write_data@data:
   377                           	callstack 0
   378                           
   379                           ; 1 bytes @ 0x2
   380   00004D                     	ds	1
   381   00004E                     eeprom_write_data@intr_status:
   382                           	callstack 0
   383                           
   384                           ; 1 bytes @ 0x3
   385   00004E                     	ds	1
   386   00004F                     ??_General_Interrupt_Manager:
   387                           
   388                           ; 1 bytes @ 0x4
   389   00004F                     	ds	2
   390   000051                     gpio_pin_direction_init@pin_confg:
   391                           	callstack 0
   392   000051                     gpio_pin_write@pin_confg:
   393                           	callstack 0
   394   000051                     gpio_pin_toggle@pin_confg:
   395                           	callstack 0
   396   000051                     interrupt_INTx_Enable@intr_obj:
   397                           	callstack 0
   398   000051                     interrupt_INTx_Disable@intr_obj:
   399                           	callstack 0
   400   000051                     interrupt_INTx_edge_set@intr_obj:
   401                           	callstack 0
   402   000051                     interrupt_INTx_clear_flag@intr_obj:
   403                           	callstack 0
   404   000051                     INT0_set_interrupt_handler@interrupt_handler:
   405                           	callstack 0
   406   000051                     INT1_set_interrupt_handler@interrupt_handler:
   407                           	callstack 0
   408   000051                     INT2_set_interrupt_handler@interrupt_handler:
   409                           	callstack 0
   410   000051                     eeprom_read_data@addr:
   411                           	callstack 0
   412                           
   413                           ; 2 bytes @ 0x6
   414   000051                     	ds	1
   415   000052                     ??_gpio_pin_direction_init:
   416   000052                     ??_gpio_pin_toggle:
   417   000052                     ??_interrupt_INTx_Disable:
   418   000052                     ??_interrupt_INTx_clear_flag:
   419   000052                     ??_interrupt_INTx_edge_set:
   420   000052                     ??_interrupt_INTx_Enable:
   421   000052                     gpio_pin_write@pin_state:
   422                           	callstack 0
   423                           
   424                           ; 1 bytes @ 0x7
   425   000052                     	ds	1
   426   000053                     ??_gpio_pin_write:
   427   000053                     interrupt_INTx_set_interrupt_handler@intr_obj:
   428                           	callstack 0
   429   000053                     eeprom_read_data@data:
   430                           	callstack 0
   431                           
   432                           ; 1 bytes @ 0x8
   433   000053                     	ds	1
   434   000054                     ??_interrupt_INTx_set_interrupt_handler:
   435   000054                     interrupt_INTx_Enable@ret:
   436                           	callstack 0
   437   000054                     interrupt_INTx_Disable@ret:
   438                           	callstack 0
   439   000054                     interrupt_INTx_edge_set@ret:
   440                           	callstack 0
   441   000054                     interrupt_INTx_clear_flag@ret:
   442                           	callstack 0
   443   000054                     eeprom_read_data@ret:
   444                           	callstack 0
   445                           
   446                           ; 1 bytes @ 0x9
   447   000054                     	ds	2
   448   000056                     gpio_pin_toggle@ret:
   449                           	callstack 0
   450   000056                     interrupt_INTx_set_interrupt_handler@ret:
   451                           	callstack 0
   452                           
   453                           ; 1 bytes @ 0xB
   454   000056                     	ds	1
   455   000057                     led_toggle@led:
   456                           	callstack 0
   457   000057                     gpio_pin_direction_init@ret:
   458                           	callstack 0
   459                           
   460                           ; 1 bytes @ 0xC
   461   000057                     	ds	1
   462   000058                     ??_led_toggle:
   463   000058                     gpio_pin_write@ret:
   464                           	callstack 0
   465   000058                     interrupt_INTx_pin_cfg@intr_obj:
   466                           	callstack 0
   467                           
   468                           ; 1 bytes @ 0xD
   469   000058                     	ds	1
   470   000059                     led_off@led:
   471                           	callstack 0
   472   000059                     led_toggle@pin_cfg:
   473                           	callstack 0
   474   000059                     gpio_pin_init@pin_confg:
   475                           	callstack 0
   476   000059                     interrupt_INTx_pin_cfg@ret:
   477                           	callstack 0
   478                           
   479                           ; 1 bytes @ 0xE
   480   000059                     	ds	1
   481   00005A                     ??_gpio_pin_init:
   482   00005A                     ??_program_1:
   483   00005A                     ??_program_2:
   484   00005A                     ??_led_off:
   485   00005A                     interrupt_INTx_Init@intr_obj:
   486                           	callstack 0
   487                           
   488                           ; 1 bytes @ 0xF
   489   00005A                     	ds	1
   490   00005B                     led_off@pin_cfg:
   491                           	callstack 0
   492   00005B                     gpio_pin_init@ret:
   493                           	callstack 0
   494   00005B                     interrupt_INTx_Init@ret:
   495                           	callstack 0
   496                           
   497                           ; 1 bytes @ 0x10
   498   00005B                     	ds	1
   499   00005C                     led_init@led:
   500                           	callstack 0
   501                           
   502                           ; 1 bytes @ 0x11
   503   00005C                     	ds	1
   504   00005D                     ??_led_init:
   505                           
   506                           ; 1 bytes @ 0x12
   507   00005D                     	ds	1
   508   00005E                     led_init@pin_cfg:
   509                           	callstack 0
   510                           
   511                           ; 1 bytes @ 0x13
   512   00005E                     	ds	1
   513   00005F                     
   514                           ; 1 bytes @ 0x14
   515 ;;
   516 ;;Main: autosize = 0, tempsize = 0, incstack = 0, save=0
   517 ;;
   518 ;; *************** function _main *****************
   519 ;; Defined at:
   520 ;;		line 36 in file "application.c"
   521 ;; Parameters:    Size  Location     Type
   522 ;;		None
   523 ;; Auto vars:     Size  Location     Type
   524 ;;		None
   525 ;; Return value:  Size  Location     Type
   526 ;;                  2  1117[None  ] int 
   527 ;; Registers used:
   528 ;;		wreg, fsr2l, fsr2h, status,2, status,0, prodl, prodh, cstack
   529 ;; Tracked objects:
   530 ;;		On entry : 0/0
   531 ;;		On exit  : 0/0
   532 ;;		Unchanged: 0/0
   533 ;; Data sizes:     COMRAM   BANK0   BANK1   BANK2   BANK3   BANK4   BANK5   BANK6   BANK7   BANK8   BANK9  BANK10  BANK1
      +1  BANK12  BANK13  BANK14  BANK15
   534 ;;      Params:         0       0       0       0       0       0       0       0       0       0       0       0       
      +0       0       0       0       0
   535 ;;      Locals:         0       0       0       0       0       0       0       0       0       0       0       0       
      +0       0       0       0       0
   536 ;;      Temps:          0       0       0       0       0       0       0       0       0       0       0       0       
      +0       0       0       0       0
   537 ;;      Totals:         0       0       0       0       0       0       0       0       0       0       0       0       
      +0       0       0       0       0
   538 ;;Total ram usage:        0 bytes
   539 ;; Hardware stack levels required when called: 8
   540 ;; This function calls:
   541 ;;		_app_init
   542 ;;		_eeprom_read_data
   543 ;;		_program_1
   544 ;;		_program_2
   545 ;;		_program_3
   546 ;; This function is called by:
   547 ;;		Startup code after reset
   548 ;; This function uses a non-reentrant model
   549 ;;
   550                           
   551                           	psect	text0
   552   001A2E                     __ptext0:
   553                           	callstack 0
   554   001A2E                     _main:
   555                           	callstack 23
   556   001A2E                     
   557                           ;application.c: 37:     app_init();
   558   001A2E  EC9D  F00E         	call	_app_init	;wreg free
   559   001A32                     
   560                           ;application.c: 38:     ret=eeprom_read_data(0x000,&prog_selected);
   561   001A32  0E00               	movlw	0
   562   001A34  6E52               	movwf	(eeprom_read_data@addr+1)^0,c
   563   001A36  0E00               	movlw	0
   564   001A38  6E51               	movwf	eeprom_read_data@addr^0,c
   565   001A3A  0E4A               	movlw	low _prog_selected
   566   001A3C  6E53               	movwf	eeprom_read_data@data^0,c
   567   001A3E  EC8E  F00D         	call	_eeprom_read_data	;wreg free
   568   001A42  6E5F               	movwf	_ret^0,c
   569   001A44                     l4096:
   570                           
   571                           ;application.c: 43:         if(prog_selected ==1){
   572   001A44  044A               	decf	_prog_selected^0,w,c	;volatile
   573   001A46  A4D8               	btfss	status,2,c
   574   001A48  EF28  F00D         	goto	u2821
   575   001A4C  EF2A  F00D         	goto	u2820
   576   001A50                     u2821:
   577   001A50  EF2E  F00D         	goto	l4100
   578   001A54                     u2820:
   579   001A54                     
   580                           ;application.c: 44:             program_1();
   581   001A54  EC5C  F00E         	call	_program_1	;wreg free
   582                           
   583                           ;application.c: 45:         }
   584   001A58  EF22  F00D         	goto	l4096
   585   001A5C                     l4100:
   586   001A5C  0E02               	movlw	2
   587   001A5E  184A               	xorwf	_prog_selected^0,w,c	;volatile
   588   001A60  A4D8               	btfss	status,2,c
   589   001A62  EF35  F00D         	goto	u2831
   590   001A66  EF37  F00D         	goto	u2830
   591   001A6A                     u2831:
   592   001A6A  EF3B  F00D         	goto	l4104
   593   001A6E                     u2830:
   594   001A6E                     
   595                           ;application.c: 47:         {;application.c: 48:             program_2();
   596   001A6E  EC4B  F00E         	call	_program_2	;wreg free
   597                           
   598                           ;application.c: 49:         }
   599   001A72  EF22  F00D         	goto	l4096
   600   001A76                     l4104:
   601   001A76  ECDF  F00E         	call	_program_3	;wreg free
   602   001A7A  EF22  F00D         	goto	l4096
   603   001A7E  EF07  F000         	goto	start
   604   001A82                     __end_of_main:
   605                           	callstack 0
   606                           
   607 ;; *************** function _program_3 *****************
   608 ;; Defined at:
   609 ;;		line 87 in file "application.c"
   610 ;; Parameters:    Size  Location     Type
   611 ;;		None
   612 ;; Auto vars:     Size  Location     Type
   613 ;;		None
   614 ;; Return value:  Size  Location     Type
   615 ;;                  1    wreg      void 
   616 ;; Registers used:
   617 ;;		wreg, fsr2l, fsr2h, status,2, status,0, prodl, prodh, cstack
   618 ;; Tracked objects:
   619 ;;		On entry : 0/0
   620 ;;		On exit  : 0/0
   621 ;;		Unchanged: 0/0
   622 ;; Data sizes:     COMRAM   BANK0   BANK1   BANK2   BANK3   BANK4   BANK5   BANK6   BANK7   BANK8   BANK9  BANK10  BANK1
      +1  BANK12  BANK13  BANK14  BANK15
   623 ;;      Params:         0       0       0       0       0       0       0       0       0       0       0       0       
      +0       0       0       0       0
   624 ;;      Locals:         0       0       0       0       0       0       0       0       0       0       0       0       
      +0       0       0       0       0
   625 ;;      Temps:          0       0       0       0       0       0       0       0       0       0       0       0       
      +0       0       0       0       0
   626 ;;      Totals:         0       0       0       0       0       0       0       0       0       0       0       0       
      +0       0       0       0       0
   627 ;;Total ram usage:        0 bytes
   628 ;; Hardware stack levels used: 1
   629 ;; Hardware stack levels required when called: 6
   630 ;; This function calls:
   631 ;;		_led_off
   632 ;; This function is called by:
   633 ;;		_main
   634 ;; This function uses a non-reentrant model
   635 ;;
   636                           
   637                           	psect	text1
   638   001DBE                     __ptext1:
   639                           	callstack 0
   640   001DBE                     _program_3:
   641                           	callstack 24
   642   001DBE                     
   643                           ;application.c: 88:      led_off(&led_1);
   644   001DBE  0E2A               	movlw	low _led_1
   645   001DC0  6E59               	movwf	led_off@led^0,c
   646   001DC2  ECD9  F00B         	call	_led_off	;wreg free
   647                           
   648                           ;application.c: 89:      led_off(&led_2);
   649   001DC6  0E29               	movlw	low _led_2
   650   001DC8  6E59               	movwf	led_off@led^0,c
   651   001DCA  ECD9  F00B         	call	_led_off	;wreg free
   652   001DCE  0012               	return		;funcret
   653   001DD0                     __end_of_program_3:
   654                           	callstack 0
   655                           
   656 ;; *************** function _led_off *****************
   657 ;; Defined at:
   658 ;;		line 62 in file "ECU_Layer/LED/ecu_led.c"
   659 ;; Parameters:    Size  Location     Type
   660 ;;  led             1   14[COMRAM] PTR const struct .
   661 ;;		 -> led_2(1), led_1(1), 
   662 ;; Auto vars:     Size  Location     Type
   663 ;;  pin_cfg         1   16[COMRAM] struct .
   664 ;;  ret             1    0        unsigned char 
   665 ;; Return value:  Size  Location     Type
   666 ;;                  1    wreg      unsigned char 
   667 ;; Registers used:
   668 ;;		wreg, fsr2l, fsr2h, status,2, status,0, prodl, prodh, cstack
   669 ;; Tracked objects:
   670 ;;		On entry : 0/0
   671 ;;		On exit  : 0/0
   672 ;;		Unchanged: 0/0
   673 ;; Data sizes:     COMRAM   BANK0   BANK1   BANK2   BANK3   BANK4   BANK5   BANK6   BANK7   BANK8   BANK9  BANK10  BANK1
      +1  BANK12  BANK13  BANK14  BANK15
   674 ;;      Params:         1       0       0       0       0       0       0       0       0       0       0       0       
      +0       0       0       0       0
   675 ;;      Locals:         1       0       0       0       0       0       0       0       0       0       0       0       
      +0       0       0       0       0
   676 ;;      Temps:          1       0       0       0       0       0       0       0       0       0       0       0       
      +0       0       0       0       0
   677 ;;      Totals:         3       0       0       0       0       0       0       0       0       0       0       0       
      +0       0       0       0       0
   678 ;;Total ram usage:        3 bytes
   679 ;; Hardware stack levels used: 1
   680 ;; Hardware stack levels required when called: 5
   681 ;; This function calls:
   682 ;;		_gpio_pin_write
   683 ;; This function is called by:
   684 ;;		_program_3
   685 ;; This function uses a non-reentrant model
   686 ;;
   687                           
   688                           	psect	text2
   689   0017B2                     __ptext2:
   690                           	callstack 0
   691   0017B2                     _led_off:
   692                           	callstack 24
   693   0017B2                     
   694                           ;ECU_Layer/LED/ecu_led.c: 64:     if(((void*)0) == led)
   695   0017B2  5059               	movf	led_off@led^0,w,c
   696   0017B4  A4D8               	btfss	status,2,c
   697   0017B6  EFDF  F00B         	goto	u1921
   698   0017BA  EFE1  F00B         	goto	u1920
   699   0017BE                     u1921:
   700   0017BE  EFE3  F00B         	goto	l434
   701   0017C2                     u1920:
   702   0017C2                     
   703                           ;ECU_Layer/LED/ecu_led.c: 67:     }
   704   0017C2  EF0F  F00C         	goto	l438
   705   0017C6                     l434:
   706                           
   707                           ;ECU_Layer/LED/ecu_led.c: 69:     {;ECU_Layer/LED/ecu_led.c: 70:         pin_config_t pi
      +                          n_cfg={.port=led->port_name,.pin=led->pin,
   708   0017C6  C047  F05B         	movff	led_off@F3072,led_off@pin_cfg
   709   0017CA  5059               	movf	led_off@led^0,w,c
   710   0017CC  6ED9               	movwf	fsr2l,c
   711   0017CE  6ADA               	clrf	fsr2h,c
   712   0017D0  50DF               	movf	223,w,c
   713   0017D2  0B07               	andlw	7
   714   0017D4  6E5A               	movwf	??_led_off^0,c
   715   0017D6  505B               	movf	led_off@pin_cfg^0,w,c
   716   0017D8  185A               	xorwf	??_led_off^0,w,c
   717   0017DA  0BF8               	andlw	-8
   718   0017DC  185A               	xorwf	??_led_off^0,w,c
   719   0017DE  6E5B               	movwf	led_off@pin_cfg^0,c
   720   0017E0  5059               	movf	led_off@led^0,w,c
   721   0017E2  6ED9               	movwf	fsr2l,c
   722   0017E4  6ADA               	clrf	fsr2h,c
   723   0017E6  30DF               	rrcf	223,w,c
   724   0017E8  32E8               	rrcf	wreg,f,c
   725   0017EA  32E8               	rrcf	wreg,f,c
   726   0017EC  0B07               	andlw	7
   727   0017EE  6E5A               	movwf	??_led_off^0,c
   728   0017F0  465A               	rlncf	??_led_off^0,f,c
   729   0017F2  465A               	rlncf	??_led_off^0,f,c
   730   0017F4  465A               	rlncf	??_led_off^0,f,c
   731   0017F6  505B               	movf	led_off@pin_cfg^0,w,c
   732   0017F8  185A               	xorwf	??_led_off^0,w,c
   733   0017FA  0BC7               	andlw	-57
   734   0017FC  185A               	xorwf	??_led_off^0,w,c
   735   0017FE  6E5B               	movwf	led_off@pin_cfg^0,c
   736   001800  9C5B               	bcf	led_off@pin_cfg^0,6,c
   737   001802  5059               	movf	led_off@led^0,w,c
   738   001804  6ED9               	movwf	fsr2l,c
   739   001806  6ADA               	clrf	fsr2h,c
   740   001808  ACDF               	btfss	indf2,6,c
   741   00180A  D002               	bra	u1935
   742   00180C  8E5B               	bsf	led_off@pin_cfg^0,7,c
   743   00180E  D001               	bra	u1937
   744   001810                     u1935:
   745   001810  9E5B               	bcf	led_off@pin_cfg^0,7,c
   746   001812                     u1937:
   747   001812                     
   748                           ;ECU_Layer/LED/ecu_led.c: 72:         gpio_pin_write(&pin_cfg,GPIO_STATE_LOW);
   749   001812  0E5B               	movlw	low led_off@pin_cfg
   750   001814  6E51               	movwf	gpio_pin_write@pin_confg^0,c
   751   001816  0E00               	movlw	0
   752   001818  6E52               	movwf	gpio_pin_write@pin_state^0,c
   753   00181A  EC77  F00A         	call	_gpio_pin_write	;wreg free
   754   00181E                     l438:
   755   00181E  0012               	return		;funcret
   756   001820                     __end_of_led_off:
   757                           	callstack 0
   758                           
   759 ;; *************** function _program_2 *****************
   760 ;; Defined at:
   761 ;;		line 81 in file "application.c"
   762 ;; Parameters:    Size  Location     Type
   763 ;;		None
   764 ;; Auto vars:     Size  Location     Type
   765 ;;		None
   766 ;; Return value:  Size  Location     Type
   767 ;;                  1    wreg      void 
   768 ;; Registers used:
   769 ;;		wreg, fsr2l, fsr2h, status,2, status,0, prodl, prodh, cstack
   770 ;; Tracked objects:
   771 ;;		On entry : 0/0
   772 ;;		On exit  : 0/0
   773 ;;		Unchanged: 0/0
   774 ;; Data sizes:     COMRAM   BANK0   BANK1   BANK2   BANK3   BANK4   BANK5   BANK6   BANK7   BANK8   BANK9  BANK10  BANK1
      +1  BANK12  BANK13  BANK14  BANK15
   775 ;;      Params:         0       0       0       0       0       0       0       0       0       0       0       0       
      +0       0       0       0       0
   776 ;;      Locals:         0       0       0       0       0       0       0       0       0       0       0       0       
      +0       0       0       0       0
   777 ;;      Temps:          2       0       0       0       0       0       0       0       0       0       0       0       
      +0       0       0       0       0
   778 ;;      Totals:         2       0       0       0       0       0       0       0       0       0       0       0       
      +0       0       0       0       0
   779 ;;Total ram usage:        2 bytes
   780 ;; Hardware stack levels used: 1
   781 ;; Hardware stack levels required when called: 6
   782 ;; This function calls:
   783 ;;		_led_toggle
   784 ;; This function is called by:
   785 ;;		_main
   786 ;; This function uses a non-reentrant model
   787 ;;
   788                           
   789                           	psect	text3
   790   001C96                     __ptext3:
   791                           	callstack 0
   792   001C96                     _program_2:
   793                           	callstack 24
   794   001C96                     
   795                           ;application.c: 83:      led_toggle(&led_2);
   796   001C96  0E29               	movlw	low _led_2
   797   001C98  6E57               	movwf	led_toggle@led^0,c
   798   001C9A  EC7E  F00C         	call	_led_toggle	;wreg free
   799   001C9E                     
   800                           ;application.c: 84:     _delay((unsigned long)((200)*(8000000/4000.0)));
   801   001C9E  0E03               	movlw	3
   802   001CA0  6E5B               	movwf	(??_program_2+1)^0,c
   803   001CA2  0E08               	movlw	8
   804   001CA4  6E5A               	movwf	??_program_2^0,c
   805   001CA6  0E77               	movlw	119
   806   001CA8                     u2847:
   807   001CA8  2EE8               	decfsz	wreg,f,c
   808   001CAA  D7FE               	bra	u2847
   809   001CAC  2E5A               	decfsz	??_program_2^0,f,c
   810   001CAE  D7FC               	bra	u2847
   811   001CB0  2E5B               	decfsz	(??_program_2+1)^0,f,c
   812   001CB2  D7FA               	bra	u2847
   813   001CB4  0000               	nop	
   814   001CB6  0012               	return		;funcret
   815   001CB8                     __end_of_program_2:
   816                           	callstack 0
   817                           
   818 ;; *************** function _program_1 *****************
   819 ;; Defined at:
   820 ;;		line 75 in file "application.c"
   821 ;; Parameters:    Size  Location     Type
   822 ;;		None
   823 ;; Auto vars:     Size  Location     Type
   824 ;;		None
   825 ;; Return value:  Size  Location     Type
   826 ;;                  1    wreg      void 
   827 ;; Registers used:
   828 ;;		wreg, fsr2l, fsr2h, status,2, status,0, prodl, prodh, cstack
   829 ;; Tracked objects:
   830 ;;		On entry : 0/0
   831 ;;		On exit  : 0/0
   832 ;;		Unchanged: 0/0
   833 ;; Data sizes:     COMRAM   BANK0   BANK1   BANK2   BANK3   BANK4   BANK5   BANK6   BANK7   BANK8   BANK9  BANK10  BANK1
      +1  BANK12  BANK13  BANK14  BANK15
   834 ;;      Params:         0       0       0       0       0       0       0       0       0       0       0       0       
      +0       0       0       0       0
   835 ;;      Locals:         0       0       0       0       0       0       0       0       0       0       0       0       
      +0       0       0       0       0
   836 ;;      Temps:          2       0       0       0       0       0       0       0       0       0       0       0       
      +0       0       0       0       0
   837 ;;      Totals:         2       0       0       0       0       0       0       0       0       0       0       0       
      +0       0       0       0       0
   838 ;;Total ram usage:        2 bytes
   839 ;; Hardware stack levels used: 1
   840 ;; Hardware stack levels required when called: 6
   841 ;; This function calls:
   842 ;;		_led_toggle
   843 ;; This function is called by:
   844 ;;		_main
   845 ;; This function uses a non-reentrant model
   846 ;;
   847                           
   848                           	psect	text4
   849   001CB8                     __ptext4:
   850                           	callstack 0
   851   001CB8                     _program_1:
   852                           	callstack 24
   853   001CB8                     
   854                           ;application.c: 77:     led_toggle(&led_1);
   855   001CB8  0E2A               	movlw	low _led_1
   856   001CBA  6E57               	movwf	led_toggle@led^0,c
   857   001CBC  EC7E  F00C         	call	_led_toggle	;wreg free
   858   001CC0                     
   859                           ;application.c: 78:     _delay((unsigned long)((200)*(8000000/4000.0)));
   860   001CC0  0E03               	movlw	3
   861   001CC2  6E5B               	movwf	(??_program_1+1)^0,c
   862   001CC4  0E08               	movlw	8
   863   001CC6  6E5A               	movwf	??_program_1^0,c
   864   001CC8  0E77               	movlw	119
   865   001CCA                     u2857:
   866   001CCA  2EE8               	decfsz	wreg,f,c
   867   001CCC  D7FE               	bra	u2857
   868   001CCE  2E5A               	decfsz	??_program_1^0,f,c
   869   001CD0  D7FC               	bra	u2857
   870   001CD2  2E5B               	decfsz	(??_program_1+1)^0,f,c
   871   001CD4  D7FA               	bra	u2857
   872   001CD6  0000               	nop	
   873   001CD8  0012               	return		;funcret
   874   001CDA                     __end_of_program_1:
   875                           	callstack 0
   876                           
   877 ;; *************** function _led_toggle *****************
   878 ;; Defined at:
   879 ;;		line 84 in file "ECU_Layer/LED/ecu_led.c"
   880 ;; Parameters:    Size  Location     Type
   881 ;;  led             1   12[COMRAM] PTR const struct .
   882 ;;		 -> led_2(1), led_1(1), 
   883 ;; Auto vars:     Size  Location     Type
   884 ;;  pin_cfg         1   14[COMRAM] struct .
   885 ;;  ret             1    0        unsigned char 
   886 ;; Return value:  Size  Location     Type
   887 ;;                  1    wreg      unsigned char 
   888 ;; Registers used:
   889 ;;		wreg, fsr2l, fsr2h, status,2, status,0, prodl, prodh, cstack
   890 ;; Tracked objects:
   891 ;;		On entry : 0/0
   892 ;;		On exit  : 0/0
   893 ;;		Unchanged: 0/0
   894 ;; Data sizes:     COMRAM   BANK0   BANK1   BANK2   BANK3   BANK4   BANK5   BANK6   BANK7   BANK8   BANK9  BANK10  BANK1
      +1  BANK12  BANK13  BANK14  BANK15
   895 ;;      Params:         1       0       0       0       0       0       0       0       0       0       0       0       
      +0       0       0       0       0
   896 ;;      Locals:         1       0       0       0       0       0       0       0       0       0       0       0       
      +0       0       0       0       0
   897 ;;      Temps:          1       0       0       0       0       0       0       0       0       0       0       0       
      +0       0       0       0       0
   898 ;;      Totals:         3       0       0       0       0       0       0       0       0       0       0       0       
      +0       0       0       0       0
   899 ;;Total ram usage:        3 bytes
   900 ;; Hardware stack levels used: 1
   901 ;; Hardware stack levels required when called: 5
   902 ;; This function calls:
   903 ;;		_gpio_pin_toggle
   904 ;; This function is called by:
   905 ;;		_program_1
   906 ;;		_program_2
   907 ;; This function uses a non-reentrant model
   908 ;;
   909                           
   910                           	psect	text5
   911   0018FC                     __ptext5:
   912                           	callstack 0
   913   0018FC                     _led_toggle:
   914                           	callstack 24
   915   0018FC                     
   916                           ;ECU_Layer/LED/ecu_led.c: 86:     if(((void*)0) == led)
   917   0018FC  5057               	movf	led_toggle@led^0,w,c
   918   0018FE  A4D8               	btfss	status,2,c
   919   001900  EF84  F00C         	goto	u1941
   920   001904  EF86  F00C         	goto	u1940
   921   001908                     u1941:
   922   001908  EF88  F00C         	goto	l441
   923   00190C                     u1940:
   924   00190C                     
   925                           ;ECU_Layer/LED/ecu_led.c: 89:     }
   926   00190C  EFB2  F00C         	goto	l445
   927   001910                     l441:
   928                           
   929                           ;ECU_Layer/LED/ecu_led.c: 91:     {;ECU_Layer/LED/ecu_led.c: 92:         pin_config_t pi
      +                          n_cfg={.port=led->port_name,.pin=led->pin,
   930   001910  C046  F059         	movff	led_toggle@F3077,led_toggle@pin_cfg
   931   001914  5057               	movf	led_toggle@led^0,w,c
   932   001916  6ED9               	movwf	fsr2l,c
   933   001918  6ADA               	clrf	fsr2h,c
   934   00191A  50DF               	movf	223,w,c
   935   00191C  0B07               	andlw	7
   936   00191E  6E58               	movwf	??_led_toggle^0,c
   937   001920  5059               	movf	led_toggle@pin_cfg^0,w,c
   938   001922  1858               	xorwf	??_led_toggle^0,w,c
   939   001924  0BF8               	andlw	-8
   940   001926  1858               	xorwf	??_led_toggle^0,w,c
   941   001928  6E59               	movwf	led_toggle@pin_cfg^0,c
   942   00192A  5057               	movf	led_toggle@led^0,w,c
   943   00192C  6ED9               	movwf	fsr2l,c
   944   00192E  6ADA               	clrf	fsr2h,c
   945   001930  30DF               	rrcf	223,w,c
   946   001932  32E8               	rrcf	wreg,f,c
   947   001934  32E8               	rrcf	wreg,f,c
   948   001936  0B07               	andlw	7
   949   001938  6E58               	movwf	??_led_toggle^0,c
   950   00193A  4658               	rlncf	??_led_toggle^0,f,c
   951   00193C  4658               	rlncf	??_led_toggle^0,f,c
   952   00193E  4658               	rlncf	??_led_toggle^0,f,c
   953   001940  5059               	movf	led_toggle@pin_cfg^0,w,c
   954   001942  1858               	xorwf	??_led_toggle^0,w,c
   955   001944  0BC7               	andlw	-57
   956   001946  1858               	xorwf	??_led_toggle^0,w,c
   957   001948  6E59               	movwf	led_toggle@pin_cfg^0,c
   958   00194A  9C59               	bcf	led_toggle@pin_cfg^0,6,c
   959   00194C  5057               	movf	led_toggle@led^0,w,c
   960   00194E  6ED9               	movwf	fsr2l,c
   961   001950  6ADA               	clrf	fsr2h,c
   962   001952  ACDF               	btfss	indf2,6,c
   963   001954  D002               	bra	u1955
   964   001956  8E59               	bsf	led_toggle@pin_cfg^0,7,c
   965   001958  D001               	bra	u1957
   966   00195A                     u1955:
   967   00195A  9E59               	bcf	led_toggle@pin_cfg^0,7,c
   968   00195C                     u1957:
   969   00195C                     
   970                           ;ECU_Layer/LED/ecu_led.c: 94:         gpio_pin_toggle(&pin_cfg);
   971   00195C  0E59               	movlw	low led_toggle@pin_cfg
   972   00195E  6E51               	movwf	gpio_pin_toggle@pin_confg^0,c
   973   001960  EC56  F00B         	call	_gpio_pin_toggle	;wreg free
   974   001964                     l445:
   975   001964  0012               	return		;funcret
   976   001966                     __end_of_led_toggle:
   977                           	callstack 0
   978                           
   979 ;; *************** function _gpio_pin_toggle *****************
   980 ;; Defined at:
   981 ;;		line 143 in file "MCAL_Layer/GPIO/hal_gpio.c"
   982 ;; Parameters:    Size  Location     Type
   983 ;;  pin_confg       1    6[COMRAM] PTR const struct .
   984 ;;		 -> relay_toggle@pin_obj(1), led_toggle@pin_cfg(1), 
   985 ;; Auto vars:     Size  Location     Type
   986 ;;  ret             1   11[COMRAM] unsigned char 
   987 ;; Return value:  Size  Location     Type
   988 ;;                  1    wreg      unsigned char 
   989 ;; Registers used:
   990 ;;		wreg, fsr2l, fsr2h, status,2, status,0, prodl, prodh
   991 ;; Tracked objects:
   992 ;;		On entry : 0/0
   993 ;;		On exit  : 0/0
   994 ;;		Unchanged: 0/0
   995 ;; Data sizes:     COMRAM   BANK0   BANK1   BANK2   BANK3   BANK4   BANK5   BANK6   BANK7   BANK8   BANK9  BANK10  BANK1
      +1  BANK12  BANK13  BANK14  BANK15
   996 ;;      Params:         1       0       0       0       0       0       0       0       0       0       0       0       
      +0       0       0       0       0
   997 ;;      Locals:         1       0       0       0       0       0       0       0       0       0       0       0       
      +0       0       0       0       0
   998 ;;      Temps:          4       0       0       0       0       0       0       0       0       0       0       0       
      +0       0       0       0       0
   999 ;;      Totals:         6       0       0       0       0       0       0       0       0       0       0       0       
      +0       0       0       0       0
  1000 ;;Total ram usage:        6 bytes
  1001 ;; Hardware stack levels used: 1
  1002 ;; Hardware stack levels required when called: 4
  1003 ;; This function calls:
  1004 ;;		Nothing
  1005 ;; This function is called by:
  1006 ;;		_led_toggle
  1007 ;;		_relay_toggle
  1008 ;; This function uses a non-reentrant model
  1009 ;;
  1010                           
  1011                           	psect	text6
  1012   0016AC                     __ptext6:
  1013                           	callstack 0
  1014   0016AC                     _gpio_pin_toggle:
  1015                           	callstack 24
  1016   0016AC                     
  1017                           ;MCAL_Layer/GPIO/hal_gpio.c: 144:     Std_RetrunType ret = ((Std_RetrunType) 0x01);
  1018   0016AC  0E01               	movlw	1
  1019   0016AE  6E56               	movwf	gpio_pin_toggle@ret^0,c
  1020                           
  1021                           ;MCAL_Layer/GPIO/hal_gpio.c: 145:     if(pin_confg == ((void*)0) ||(pin_confg->pin > 8 -
      +                          1))
  1022   0016B0  5051               	movf	gpio_pin_toggle@pin_confg^0,w,c
  1023   0016B2  B4D8               	btfsc	status,2,c
  1024   0016B4  EF5E  F00B         	goto	u1711
  1025   0016B8  EF60  F00B         	goto	u1710
  1026   0016BC                     u1711:
  1027   0016BC  EF70  F00B         	goto	l3244
  1028   0016C0                     u1710:
  1029   0016C0  5051               	movf	gpio_pin_toggle@pin_confg^0,w,c
  1030   0016C2  6ED9               	movwf	fsr2l,c
  1031   0016C4  6ADA               	clrf	fsr2h,c
  1032   0016C6  30DF               	rrcf	223,w,c
  1033   0016C8  32E8               	rrcf	wreg,f,c
  1034   0016CA  32E8               	rrcf	wreg,f,c
  1035   0016CC  0B07               	andlw	7
  1036   0016CE  6E52               	movwf	??_gpio_pin_toggle^0,c
  1037   0016D0  0E07               	movlw	7
  1038   0016D2  6452               	cpfsgt	??_gpio_pin_toggle^0,c
  1039   0016D4  EF6E  F00B         	goto	u1721
  1040   0016D8  EF70  F00B         	goto	u1720
  1041   0016DC                     u1721:
  1042   0016DC  EF74  F00B         	goto	l3246
  1043   0016E0                     u1720:
  1044   0016E0                     l3244:
  1045                           
  1046                           ;MCAL_Layer/GPIO/hal_gpio.c: 146:     {;MCAL_Layer/GPIO/hal_gpio.c: 147:         ret=((S
      +                          td_RetrunType) 0x00);
  1047   0016E0  0E00               	movlw	0
  1048   0016E2  6E56               	movwf	gpio_pin_toggle@ret^0,c
  1049                           
  1050                           ;MCAL_Layer/GPIO/hal_gpio.c: 148:     }
  1051   0016E4  EF9A  F00B         	goto	l3248
  1052   0016E8                     l3246:
  1053                           
  1054                           ;MCAL_Layer/GPIO/hal_gpio.c: 150:     {;MCAL_Layer/GPIO/hal_gpio.c: 151:         (*lat_r
      +                          eg[pin_confg->port] ^= ((uint8) 1<<pin_confg->pin));
  1055   0016E8  5051               	movf	gpio_pin_toggle@pin_confg^0,w,c
  1056   0016EA  6ED9               	movwf	fsr2l,c
  1057   0016EC  6ADA               	clrf	fsr2h,c
  1058   0016EE  30DF               	rrcf	223,w,c
  1059   0016F0  32E8               	rrcf	wreg,f,c
  1060   0016F2  32E8               	rrcf	wreg,f,c
  1061   0016F4  0B07               	andlw	7
  1062   0016F6  6E52               	movwf	??_gpio_pin_toggle^0,c
  1063   0016F8  0E01               	movlw	1
  1064   0016FA  6E53               	movwf	(??_gpio_pin_toggle+1)^0,c
  1065   0016FC  2A52               	incf	??_gpio_pin_toggle^0,f,c
  1066   0016FE  EF83  F00B         	goto	u1734
  1067   001702                     u1735:
  1068   001702  90D8               	bcf	status,0,c
  1069   001704  3653               	rlcf	(??_gpio_pin_toggle+1)^0,f,c
  1070   001706                     u1734:
  1071   001706  2E52               	decfsz	??_gpio_pin_toggle^0,f,c
  1072   001708  EF81  F00B         	goto	u1735
  1073   00170C  5051               	movf	gpio_pin_toggle@pin_confg^0,w,c
  1074   00170E  6ED9               	movwf	fsr2l,c
  1075   001710  6ADA               	clrf	fsr2h,c
  1076   001712  50DF               	movf	223,w,c
  1077   001714  0B07               	andlw	7
  1078   001716  0D02               	mullw	2
  1079   001718  50F3               	movf	243,w,c
  1080   00171A  0F0B               	addlw	low _lat_reg
  1081   00171C  6ED9               	movwf	fsr2l,c
  1082   00171E  6ADA               	clrf	fsr2h,c
  1083   001720  CFDE F054          	movff	postinc2,??_gpio_pin_toggle+2
  1084   001724  CFDD F055          	movff	postdec2,??_gpio_pin_toggle+3
  1085   001728  C054  FFD9         	movff	??_gpio_pin_toggle+2,fsr2l
  1086   00172C  C055  FFDA         	movff	??_gpio_pin_toggle+3,fsr2h
  1087   001730  5053               	movf	(??_gpio_pin_toggle+1)^0,w,c
  1088   001732  1ADF               	xorwf	indf2,f,c
  1089   001734                     l3248:
  1090                           
  1091                           ;MCAL_Layer/GPIO/hal_gpio.c: 155:     return ret;
  1092   001734  5056               	movf	gpio_pin_toggle@ret^0,w,c
  1093   001736  0012               	return		;funcret
  1094   001738                     __end_of_gpio_pin_toggle:
  1095                           	callstack 0
  1096                           
  1097 ;; *************** function _eeprom_read_data *****************
  1098 ;; Defined at:
  1099 ;;		line 60 in file "MCAL_Layer/hal_eeprom.c"
  1100 ;; Parameters:    Size  Location     Type
  1101 ;;  addr            2    6[COMRAM] unsigned short 
  1102 ;;  data            1    8[COMRAM] PTR unsigned char 
  1103 ;;		 -> prog_selected(1), 
  1104 ;; Auto vars:     Size  Location     Type
  1105 ;;  ret             1    9[COMRAM] unsigned char 
  1106 ;; Return value:  Size  Location     Type
  1107 ;;                  1    wreg      unsigned char 
  1108 ;; Registers used:
  1109 ;;		wreg, fsr2l, fsr2h, status,2, status,0
  1110 ;; Tracked objects:
  1111 ;;		On entry : 0/0
  1112 ;;		On exit  : 0/0
  1113 ;;		Unchanged: 0/0
  1114 ;; Data sizes:     COMRAM   BANK0   BANK1   BANK2   BANK3   BANK4   BANK5   BANK6   BANK7   BANK8   BANK9  BANK10  BANK1
      +1  BANK12  BANK13  BANK14  BANK15
  1115 ;;      Params:         3       0       0       0       0       0       0       0       0       0       0       0       
      +0       0       0       0       0
  1116 ;;      Locals:         1       0       0       0       0       0       0       0       0       0       0       0       
      +0       0       0       0       0
  1117 ;;      Temps:          0       0       0       0       0       0       0       0       0       0       0       0       
      +0       0       0       0       0
  1118 ;;      Totals:         4       0       0       0       0       0       0       0       0       0       0       0       
      +0       0       0       0       0
  1119 ;;Total ram usage:        4 bytes
  1120 ;; Hardware stack levels used: 1
  1121 ;; Hardware stack levels required when called: 4
  1122 ;; This function calls:
  1123 ;;		Nothing
  1124 ;; This function is called by:
  1125 ;;		_main
  1126 ;; This function uses a non-reentrant model
  1127 ;;
  1128                           
  1129                           	psect	text7
  1130   001B1C                     __ptext7:
  1131                           	callstack 0
  1132   001B1C                     _eeprom_read_data:
  1133                           	callstack 26
  1134   001B1C                     
  1135                           ;MCAL_Layer/hal_eeprom.c: 62:     if(data == ((void*)0))
  1136   001B1C  5053               	movf	eeprom_read_data@data^0,w,c
  1137   001B1E  A4D8               	btfss	status,2,c
  1138   001B20  EF94  F00D         	goto	u2071
  1139   001B24  EF96  F00D         	goto	u2070
  1140   001B28                     u2071:
  1141   001B28  EF9A  F00D         	goto	l3588
  1142   001B2C                     u2070:
  1143   001B2C                     
  1144                           ;MCAL_Layer/hal_eeprom.c: 63:     {;MCAL_Layer/hal_eeprom.c: 64:         ret=((Std_Retru
      +                          nType) 0x00);
  1145   001B2C  0E00               	movlw	0
  1146   001B2E  6E54               	movwf	eeprom_read_data@ret^0,c
  1147                           
  1148                           ;MCAL_Layer/hal_eeprom.c: 65:     }
  1149   001B30  EFAB  F00D         	goto	l3606
  1150   001B34                     l3588:
  1151                           
  1152                           ;MCAL_Layer/hal_eeprom.c: 67:     {;MCAL_Layer/hal_eeprom.c: 69:         EEADRH=(uint8)(
      +                          (addr>>8)&0x03);
  1153   001B34  5052               	movf	(eeprom_read_data@addr+1)^0,w,c
  1154   001B36  0B03               	andlw	3
  1155   001B38  6EAA               	movwf	170,c	;volatile
  1156   001B3A                     
  1157                           ;MCAL_Layer/hal_eeprom.c: 70:         EEADR=(uint8)((addr)&0xFF);
  1158   001B3A  C051  FFA9         	movff	eeprom_read_data@addr,4009	;volatile
  1159   001B3E                     
  1160                           ;MCAL_Layer/hal_eeprom.c: 72:          EECON1bits.EEPGD=0 ;
  1161   001B3E  9EA6               	bcf	166,7,c	;volsfr
  1162   001B40                     
  1163                           ;MCAL_Layer/hal_eeprom.c: 74:          EECON1bits.CFGS=0;
  1164   001B40  9CA6               	bcf	166,6,c	;volsfr
  1165   001B42                     
  1166                           ;MCAL_Layer/hal_eeprom.c: 76:          EECON1bits.RD=1;
  1167   001B42  80A6               	bsf	166,0,c	;volsfr
  1168   001B44                     
  1169                           ;MCAL_Layer/hal_eeprom.c: 77:          __nop();
  1170   001B44  0000               	nop	
  1171   001B46                     
  1172                           ;MCAL_Layer/hal_eeprom.c: 78:          __nop();
  1173   001B46  0000               	nop	
  1174   001B48                     
  1175                           ;MCAL_Layer/hal_eeprom.c: 80:          *data=EEDATA;
  1176   001B48  5053               	movf	eeprom_read_data@data^0,w,c
  1177   001B4A  6ED9               	movwf	fsr2l,c
  1178   001B4C  6ADA               	clrf	fsr2h,c
  1179   001B4E  CFA8 FFDF          	movff	4008,indf2	;volatile
  1180   001B52                     
  1181                           ;MCAL_Layer/hal_eeprom.c: 83:         ret=((Std_RetrunType) 0x01);
  1182   001B52  0E01               	movlw	1
  1183   001B54  6E54               	movwf	eeprom_read_data@ret^0,c
  1184   001B56                     l3606:
  1185                           
  1186                           ;MCAL_Layer/hal_eeprom.c: 85:     return ret;
  1187   001B56  5054               	movf	eeprom_read_data@ret^0,w,c
  1188   001B58  0012               	return		;funcret
  1189   001B5A                     __end_of_eeprom_read_data:
  1190                           	callstack 0
  1191                           
  1192 ;; *************** function _app_init *****************
  1193 ;; Defined at:
  1194 ;;		line 56 in file "application.c"
  1195 ;; Parameters:    Size  Location     Type
  1196 ;;		None
  1197 ;; Auto vars:     Size  Location     Type
  1198 ;;		None
  1199 ;; Return value:  Size  Location     Type
  1200 ;;                  1    wreg      void 
  1201 ;; Registers used:
  1202 ;;		wreg, fsr2l, fsr2h, status,2, status,0, prodl, prodh, cstack
  1203 ;; Tracked objects:
  1204 ;;		On entry : 0/0
  1205 ;;		On exit  : 0/0
  1206 ;;		Unchanged: 0/0
  1207 ;; Data sizes:     COMRAM   BANK0   BANK1   BANK2   BANK3   BANK4   BANK5   BANK6   BANK7   BANK8   BANK9  BANK10  BANK1
      +1  BANK12  BANK13  BANK14  BANK15
  1208 ;;      Params:         0       0       0       0       0       0       0       0       0       0       0       0       
      +0       0       0       0       0
  1209 ;;      Locals:         0       0       0       0       0       0       0       0       0       0       0       0       
      +0       0       0       0       0
  1210 ;;      Temps:          0       0       0       0       0       0       0       0       0       0       0       0       
      +0       0       0       0       0
  1211 ;;      Totals:         0       0       0       0       0       0       0       0       0       0       0       0       
      +0       0       0       0       0
  1212 ;;Total ram usage:        0 bytes
  1213 ;; Hardware stack levels used: 1
  1214 ;; Hardware stack levels required when called: 7
  1215 ;; This function calls:
  1216 ;;		_interrupt_INTx_Init
  1217 ;;		_led_init
  1218 ;; This function is called by:
  1219 ;;		_main
  1220 ;; This function uses a non-reentrant model
  1221 ;;
  1222                           
  1223                           	psect	text8
  1224   001D3A                     __ptext8:
  1225                           	callstack 0
  1226   001D3A                     _app_init:
  1227                           	callstack 23
  1228   001D3A                     
  1229                           ;application.c: 60:     ret=interrupt_INTx_Init(&int0_obj);
  1230   001D3A  0E23               	movlw	low _int0_obj
  1231   001D3C  6E5A               	movwf	interrupt_INTx_Init@intr_obj^0,c
  1232   001D3E  EC41  F00D         	call	_interrupt_INTx_Init	;wreg free
  1233   001D42  6E5F               	movwf	_ret^0,c
  1234                           
  1235                           ;application.c: 61:     led_init(&led_1);
  1236   001D44  0E2A               	movlw	low _led_1
  1237   001D46  6E5C               	movwf	led_init@led^0,c
  1238   001D48  ECB3  F00C         	call	_led_init	;wreg free
  1239                           
  1240                           ;application.c: 62:     led_init(&led_2);
  1241   001D4C  0E29               	movlw	low _led_2
  1242   001D4E  6E5C               	movwf	led_init@led^0,c
  1243   001D50  ECB3  F00C         	call	_led_init	;wreg free
  1244   001D54  0012               	return		;funcret
  1245   001D56                     __end_of_app_init:
  1246                           	callstack 0
  1247                           
  1248 ;; *************** function _led_init *****************
  1249 ;; Defined at:
  1250 ;;		line 20 in file "ECU_Layer/LED/ecu_led.c"
  1251 ;; Parameters:    Size  Location     Type
  1252 ;;  led             1   17[COMRAM] PTR const struct .
  1253 ;;		 -> led_2(1), led_1(1), 
  1254 ;; Auto vars:     Size  Location     Type
  1255 ;;  pin_cfg         1   19[COMRAM] struct .
  1256 ;;  ret             1    0        unsigned char 
  1257 ;; Return value:  Size  Location     Type
  1258 ;;                  1    wreg      unsigned char 
  1259 ;; Registers used:
  1260 ;;		wreg, fsr2l, fsr2h, status,2, status,0, prodl, prodh, cstack
  1261 ;; Tracked objects:
  1262 ;;		On entry : 0/0
  1263 ;;		On exit  : 0/0
  1264 ;;		Unchanged: 0/0
  1265 ;; Data sizes:     COMRAM   BANK0   BANK1   BANK2   BANK3   BANK4   BANK5   BANK6   BANK7   BANK8   BANK9  BANK10  BANK1
      +1  BANK12  BANK13  BANK14  BANK15
  1266 ;;      Params:         1       0       0       0       0       0       0       0       0       0       0       0       
      +0       0       0       0       0
  1267 ;;      Locals:         1       0       0       0       0       0       0       0       0       0       0       0       
      +0       0       0       0       0
  1268 ;;      Temps:          1       0       0       0       0       0       0       0       0       0       0       0       
      +0       0       0       0       0
  1269 ;;      Totals:         3       0       0       0       0       0       0       0       0       0       0       0       
      +0       0       0       0       0
  1270 ;;Total ram usage:        3 bytes
  1271 ;; Hardware stack levels used: 1
  1272 ;; Hardware stack levels required when called: 6
  1273 ;; This function calls:
  1274 ;;		_gpio_pin_init
  1275 ;; This function is called by:
  1276 ;;		_app_init
  1277 ;; This function uses a non-reentrant model
  1278 ;;
  1279                           
  1280                           	psect	text9
  1281   001966                     __ptext9:
  1282                           	callstack 0
  1283   001966                     _led_init:
  1284                           	callstack 23
  1285   001966                     
  1286                           ;ECU_Layer/LED/ecu_led.c: 22:     if(((void*)0) == led)
  1287   001966  505C               	movf	led_init@led^0,w,c
  1288   001968  A4D8               	btfss	status,2,c
  1289   00196A  EFB9  F00C         	goto	u1901
  1290   00196E  EFBB  F00C         	goto	u1900
  1291   001972                     u1901:
  1292   001972  EFBD  F00C         	goto	l420
  1293   001976                     u1900:
  1294   001976                     
  1295                           ;ECU_Layer/LED/ecu_led.c: 25:     }
  1296   001976  EFE7  F00C         	goto	l424
  1297   00197A                     l420:
  1298                           
  1299                           ;ECU_Layer/LED/ecu_led.c: 27:     {;ECU_Layer/LED/ecu_led.c: 28:         pin_config_t pi
      +                          n_cfg={.port=led->port_name,.pin=led->pin,
  1300   00197A  C049  F05E         	movff	led_init@F3062,led_init@pin_cfg
  1301   00197E  505C               	movf	led_init@led^0,w,c
  1302   001980  6ED9               	movwf	fsr2l,c
  1303   001982  6ADA               	clrf	fsr2h,c
  1304   001984  50DF               	movf	223,w,c
  1305   001986  0B07               	andlw	7
  1306   001988  6E5D               	movwf	??_led_init^0,c
  1307   00198A  505E               	movf	led_init@pin_cfg^0,w,c
  1308   00198C  185D               	xorwf	??_led_init^0,w,c
  1309   00198E  0BF8               	andlw	-8
  1310   001990  185D               	xorwf	??_led_init^0,w,c
  1311   001992  6E5E               	movwf	led_init@pin_cfg^0,c
  1312   001994  505C               	movf	led_init@led^0,w,c
  1313   001996  6ED9               	movwf	fsr2l,c
  1314   001998  6ADA               	clrf	fsr2h,c
  1315   00199A  30DF               	rrcf	223,w,c
  1316   00199C  32E8               	rrcf	wreg,f,c
  1317   00199E  32E8               	rrcf	wreg,f,c
  1318   0019A0  0B07               	andlw	7
  1319   0019A2  6E5D               	movwf	??_led_init^0,c
  1320   0019A4  465D               	rlncf	??_led_init^0,f,c
  1321   0019A6  465D               	rlncf	??_led_init^0,f,c
  1322   0019A8  465D               	rlncf	??_led_init^0,f,c
  1323   0019AA  505E               	movf	led_init@pin_cfg^0,w,c
  1324   0019AC  185D               	xorwf	??_led_init^0,w,c
  1325   0019AE  0BC7               	andlw	-57
  1326   0019B0  185D               	xorwf	??_led_init^0,w,c
  1327   0019B2  6E5E               	movwf	led_init@pin_cfg^0,c
  1328   0019B4  9C5E               	bcf	led_init@pin_cfg^0,6,c
  1329   0019B6  505C               	movf	led_init@led^0,w,c
  1330   0019B8  6ED9               	movwf	fsr2l,c
  1331   0019BA  6ADA               	clrf	fsr2h,c
  1332   0019BC  ACDF               	btfss	indf2,6,c
  1333   0019BE  D002               	bra	u1915
  1334   0019C0  8E5E               	bsf	led_init@pin_cfg^0,7,c
  1335   0019C2  D001               	bra	u1917
  1336   0019C4                     u1915:
  1337   0019C4  9E5E               	bcf	led_init@pin_cfg^0,7,c
  1338   0019C6                     u1917:
  1339   0019C6                     
  1340                           ;ECU_Layer/LED/ecu_led.c: 30:         gpio_pin_init(&pin_cfg);
  1341   0019C6  0E5E               	movlw	low led_init@pin_cfg
  1342   0019C8  6E59               	movwf	gpio_pin_init@pin_confg^0,c
  1343   0019CA  ECE8  F00C         	call	_gpio_pin_init	;wreg free
  1344   0019CE                     l424:
  1345   0019CE  0012               	return		;funcret
  1346   0019D0                     __end_of_led_init:
  1347                           	callstack 0
  1348                           
  1349 ;; *************** function _gpio_pin_init *****************
  1350 ;; Defined at:
  1351 ;;		line 170 in file "MCAL_Layer/GPIO/hal_gpio.c"
  1352 ;; Parameters:    Size  Location     Type
  1353 ;;  pin_confg       1   14[COMRAM] PTR const struct .
  1354 ;;		 -> relay_init@pin_obj(1), led_init@pin_cfg(1), 
  1355 ;; Auto vars:     Size  Location     Type
  1356 ;;  ret             1   16[COMRAM] unsigned char 
  1357 ;; Return value:  Size  Location     Type
  1358 ;;                  1    wreg      unsigned char 
  1359 ;; Registers used:
  1360 ;;		wreg, fsr2l, fsr2h, status,2, status,0, prodl, prodh, cstack
  1361 ;; Tracked objects:
  1362 ;;		On entry : 0/0
  1363 ;;		On exit  : 0/0
  1364 ;;		Unchanged: 0/0
  1365 ;; Data sizes:     COMRAM   BANK0   BANK1   BANK2   BANK3   BANK4   BANK5   BANK6   BANK7   BANK8   BANK9  BANK10  BANK1
      +1  BANK12  BANK13  BANK14  BANK15
  1366 ;;      Params:         1       0       0       0       0       0       0       0       0       0       0       0       
      +0       0       0       0       0
  1367 ;;      Locals:         1       0       0       0       0       0       0       0       0       0       0       0       
      +0       0       0       0       0
  1368 ;;      Temps:          1       0       0       0       0       0       0       0       0       0       0       0       
      +0       0       0       0       0
  1369 ;;      Totals:         3       0       0       0       0       0       0       0       0       0       0       0       
      +0       0       0       0       0
  1370 ;;Total ram usage:        3 bytes
  1371 ;; Hardware stack levels used: 1
  1372 ;; Hardware stack levels required when called: 5
  1373 ;; This function calls:
  1374 ;;		_gpio_pin_direction_init
  1375 ;;		_gpio_pin_write
  1376 ;; This function is called by:
  1377 ;;		_led_init
  1378 ;;		_seven_segment_init
  1379 ;;		_lcd_init
  1380 ;;		_dc_motor_init
  1381 ;;		_keypad_init
  1382 ;;		_relay_init
  1383 ;; This function uses a non-reentrant model
  1384 ;;
  1385                           
  1386                           	psect	text10
  1387   0019D0                     __ptext10:
  1388                           	callstack 0
  1389   0019D0                     _gpio_pin_init:
  1390                           	callstack 23
  1391   0019D0                     
  1392                           ;MCAL_Layer/GPIO/hal_gpio.c: 172:     if(pin_confg == ((void*)0) ||(pin_confg->pin > 8 -
      +                          1))
  1393   0019D0  5059               	movf	gpio_pin_init@pin_confg^0,w,c
  1394   0019D2  B4D8               	btfsc	status,2,c
  1395   0019D4  EFEE  F00C         	goto	u1681
  1396   0019D8  EFF0  F00C         	goto	u1680
  1397   0019DC                     u1681:
  1398   0019DC  EF00  F00D         	goto	l3220
  1399   0019E0                     u1680:
  1400   0019E0  5059               	movf	gpio_pin_init@pin_confg^0,w,c
  1401   0019E2  6ED9               	movwf	fsr2l,c
  1402   0019E4  6ADA               	clrf	fsr2h,c
  1403   0019E6  30DF               	rrcf	223,w,c
  1404   0019E8  32E8               	rrcf	wreg,f,c
  1405   0019EA  32E8               	rrcf	wreg,f,c
  1406   0019EC  0B07               	andlw	7
  1407   0019EE  6E5A               	movwf	??_gpio_pin_init^0,c
  1408   0019F0  0E07               	movlw	7
  1409   0019F2  645A               	cpfsgt	??_gpio_pin_init^0,c
  1410   0019F4  EFFE  F00C         	goto	u1691
  1411   0019F8  EF00  F00D         	goto	u1690
  1412   0019FC                     u1691:
  1413   0019FC  EF04  F00D         	goto	l3222
  1414   001A00                     u1690:
  1415   001A00                     l3220:
  1416                           
  1417                           ;MCAL_Layer/GPIO/hal_gpio.c: 173:     {;MCAL_Layer/GPIO/hal_gpio.c: 174:         ret=((S
      +                          td_RetrunType) 0x00);
  1418   001A00  0E00               	movlw	0
  1419   001A02  6E5B               	movwf	gpio_pin_init@ret^0,c
  1420                           
  1421                           ;MCAL_Layer/GPIO/hal_gpio.c: 175:     }
  1422   001A04  EF15  F00D         	goto	l3224
  1423   001A08                     l3222:
  1424                           
  1425                           ;MCAL_Layer/GPIO/hal_gpio.c: 177:     {;MCAL_Layer/GPIO/hal_gpio.c: 178:         ret=gpi
      +                          o_pin_direction_init(pin_confg);
  1426   001A08  C059  F051         	movff	gpio_pin_init@pin_confg,gpio_pin_direction_init@pin_confg
  1427   001A0C  EC56  F009         	call	_gpio_pin_direction_init	;wreg free
  1428   001A10  6E5B               	movwf	gpio_pin_init@ret^0,c
  1429                           
  1430                           ;MCAL_Layer/GPIO/hal_gpio.c: 179:         ret=gpio_pin_write(pin_confg,pin_confg->state)
      +                          ;
  1431   001A12  C059  F051         	movff	gpio_pin_init@pin_confg,gpio_pin_write@pin_confg
  1432   001A16  5059               	movf	gpio_pin_init@pin_confg^0,w,c
  1433   001A18  6ED9               	movwf	fsr2l,c
  1434   001A1A  6ADA               	clrf	fsr2h,c
  1435   001A1C  0E00               	movlw	0
  1436   001A1E  BEDF               	btfsc	indf2,7,c
  1437   001A20  0E01               	movlw	1
  1438   001A22  6E52               	movwf	gpio_pin_write@pin_state^0,c
  1439   001A24  EC77  F00A         	call	_gpio_pin_write	;wreg free
  1440   001A28  6E5B               	movwf	gpio_pin_init@ret^0,c
  1441   001A2A                     l3224:
  1442                           
  1443                           ;MCAL_Layer/GPIO/hal_gpio.c: 183:     return ret;
  1444   001A2A  505B               	movf	gpio_pin_init@ret^0,w,c
  1445   001A2C  0012               	return		;funcret
  1446   001A2E                     __end_of_gpio_pin_init:
  1447                           	callstack 0
  1448                           
  1449 ;; *************** function _gpio_pin_write *****************
  1450 ;; Defined at:
  1451 ;;		line 83 in file "MCAL_Layer/GPIO/hal_gpio.c"
  1452 ;; Parameters:    Size  Location     Type
  1453 ;;  pin_confg       1    6[COMRAM] PTR const struct .
  1454 ;;		 -> relay_off@pin_obj(1), relay_on@pin_obj(1), relay_init@pin_obj(1), led_off@pin_cfg(1), 
  1455 ;;		 -> led_on@pin_cfg(1), led_init@pin_cfg(1), 
  1456 ;;  pin_state       1    7[COMRAM] enum E2982
  1457 ;; Auto vars:     Size  Location     Type
  1458 ;;  ret             1   13[COMRAM] unsigned char 
  1459 ;; Return value:  Size  Location     Type
  1460 ;;                  1    wreg      unsigned char 
  1461 ;; Registers used:
  1462 ;;		wreg, fsr2l, fsr2h, status,2, status,0, prodl, prodh
  1463 ;; Tracked objects:
  1464 ;;		On entry : 0/0
  1465 ;;		On exit  : 0/0
  1466 ;;		Unchanged: 0/0
  1467 ;; Data sizes:     COMRAM   BANK0   BANK1   BANK2   BANK3   BANK4   BANK5   BANK6   BANK7   BANK8   BANK9  BANK10  BANK1
      +1  BANK12  BANK13  BANK14  BANK15
  1468 ;;      Params:         2       0       0       0       0       0       0       0       0       0       0       0       
      +0       0       0       0       0
  1469 ;;      Locals:         1       0       0       0       0       0       0       0       0       0       0       0       
      +0       0       0       0       0
  1470 ;;      Temps:          5       0       0       0       0       0       0       0       0       0       0       0       
      +0       0       0       0       0
  1471 ;;      Totals:         8       0       0       0       0       0       0       0       0       0       0       0       
      +0       0       0       0       0
  1472 ;;Total ram usage:        8 bytes
  1473 ;; Hardware stack levels used: 1
  1474 ;; Hardware stack levels required when called: 4
  1475 ;; This function calls:
  1476 ;;		Nothing
  1477 ;; This function is called by:
  1478 ;;		_led_off
  1479 ;;		_gpio_pin_init
  1480 ;;		_seven_segment_display_number
  1481 ;;		_lcd_send_command
  1482 ;;		_lcd_send_char_data
  1483 ;;		_lcd_send_bits
  1484 ;;		_lcd_send_enable_signal
  1485 ;;		_dc_motor_move_right
  1486 ;;		_dc_motor_move_left
  1487 ;;		_dc_motor_stop
  1488 ;;		_keypad_get_key_pressed
  1489 ;;		_led_on
  1490 ;;		_relay_on
  1491 ;;		_relay_off
  1492 ;; This function uses a non-reentrant model
  1493 ;;
  1494                           
  1495                           	psect	text11
  1496   0014EE                     __ptext11:
  1497                           	callstack 0
  1498   0014EE                     _gpio_pin_write:
  1499                           	callstack 24
  1500   0014EE                     
  1501                           ;MCAL_Layer/GPIO/hal_gpio.c: 84:     Std_RetrunType ret = ((Std_RetrunType) 0x01);
  1502   0014EE  0E01               	movlw	1
  1503   0014F0  6E58               	movwf	gpio_pin_write@ret^0,c
  1504                           
  1505                           ;MCAL_Layer/GPIO/hal_gpio.c: 85:     if(pin_confg == ((void*)0) ||(pin_confg->pin > 8 -1
      +                          ))
  1506   0014F2  5051               	movf	gpio_pin_write@pin_confg^0,w,c
  1507   0014F4  B4D8               	btfsc	status,2,c
  1508   0014F6  EF7F  F00A         	goto	u1551
  1509   0014FA  EF81  F00A         	goto	u1550
  1510   0014FE                     u1551:
  1511   0014FE  EF91  F00A         	goto	l3140
  1512   001502                     u1550:
  1513   001502  5051               	movf	gpio_pin_write@pin_confg^0,w,c
  1514   001504  6ED9               	movwf	fsr2l,c
  1515   001506  6ADA               	clrf	fsr2h,c
  1516   001508  30DF               	rrcf	223,w,c
  1517   00150A  32E8               	rrcf	wreg,f,c
  1518   00150C  32E8               	rrcf	wreg,f,c
  1519   00150E  0B07               	andlw	7
  1520   001510  6E53               	movwf	??_gpio_pin_write^0,c
  1521   001512  0E07               	movlw	7
  1522   001514  6453               	cpfsgt	??_gpio_pin_write^0,c
  1523   001516  EF8F  F00A         	goto	u1561
  1524   00151A  EF91  F00A         	goto	u1560
  1525   00151E                     u1561:
  1526   00151E  EFE8  F00A         	goto	l3148
  1527   001522                     u1560:
  1528   001522                     l3140:
  1529                           
  1530                           ;MCAL_Layer/GPIO/hal_gpio.c: 86:     {;MCAL_Layer/GPIO/hal_gpio.c: 87:         ret=((Std
      +                          _RetrunType) 0x00);
  1531   001522  0E00               	movlw	0
  1532   001524  6E58               	movwf	gpio_pin_write@ret^0,c
  1533                           
  1534                           ;MCAL_Layer/GPIO/hal_gpio.c: 88:     }
  1535   001526  EFFD  F00A         	goto	l3150
  1536   00152A                     l3142:
  1537                           
  1538                           ;MCAL_Layer/GPIO/hal_gpio.c: 94:                 (*lat_reg[pin_confg->port] &=~ ((uint8)
      +                           1<<pin_confg->pin));
  1539   00152A  5051               	movf	gpio_pin_write@pin_confg^0,w,c
  1540   00152C  6ED9               	movwf	fsr2l,c
  1541   00152E  6ADA               	clrf	fsr2h,c
  1542   001530  30DF               	rrcf	223,w,c
  1543   001532  32E8               	rrcf	wreg,f,c
  1544   001534  32E8               	rrcf	wreg,f,c
  1545   001536  0B07               	andlw	7
  1546   001538  6E53               	movwf	??_gpio_pin_write^0,c
  1547   00153A  0E01               	movlw	1
  1548   00153C  6E54               	movwf	(??_gpio_pin_write+1)^0,c
  1549   00153E  2A53               	incf	??_gpio_pin_write^0,f,c
  1550   001540  EFA4  F00A         	goto	u1574
  1551   001544                     u1575:
  1552   001544  90D8               	bcf	status,0,c
  1553   001546  3654               	rlcf	(??_gpio_pin_write+1)^0,f,c
  1554   001548                     u1574:
  1555   001548  2E53               	decfsz	??_gpio_pin_write^0,f,c
  1556   00154A  EFA2  F00A         	goto	u1575
  1557   00154E  5054               	movf	(??_gpio_pin_write+1)^0,w,c
  1558   001550  0AFF               	xorlw	255
  1559   001552  6E55               	movwf	(??_gpio_pin_write+2)^0,c
  1560   001554  5051               	movf	gpio_pin_write@pin_confg^0,w,c
  1561   001556  6ED9               	movwf	fsr2l,c
  1562   001558  6ADA               	clrf	fsr2h,c
  1563   00155A  50DF               	movf	223,w,c
  1564   00155C  0B07               	andlw	7
  1565   00155E  0D02               	mullw	2
  1566   001560  50F3               	movf	243,w,c
  1567   001562  0F0B               	addlw	low _lat_reg
  1568   001564  6ED9               	movwf	fsr2l,c
  1569   001566  6ADA               	clrf	fsr2h,c
  1570   001568  CFDE F056          	movff	postinc2,??_gpio_pin_write+3
  1571   00156C  CFDD F057          	movff	postdec2,??_gpio_pin_write+4
  1572   001570  C056  FFD9         	movff	??_gpio_pin_write+3,fsr2l
  1573   001574  C057  FFDA         	movff	??_gpio_pin_write+4,fsr2h
  1574   001578  5055               	movf	(??_gpio_pin_write+2)^0,w,c
  1575   00157A  16DF               	andwf	indf2,f,c
  1576                           
  1577                           ;MCAL_Layer/GPIO/hal_gpio.c: 95:                 break;
  1578   00157C  EFFD  F00A         	goto	l3150
  1579   001580                     l3144:
  1580                           
  1581                           ;MCAL_Layer/GPIO/hal_gpio.c: 97:                 (*lat_reg[pin_confg->port] |= ((uint8) 
      +                          1<<pin_confg->pin));
  1582   001580  5051               	movf	gpio_pin_write@pin_confg^0,w,c
  1583   001582  6ED9               	movwf	fsr2l,c
  1584   001584  6ADA               	clrf	fsr2h,c
  1585   001586  30DF               	rrcf	223,w,c
  1586   001588  32E8               	rrcf	wreg,f,c
  1587   00158A  32E8               	rrcf	wreg,f,c
  1588   00158C  0B07               	andlw	7
  1589   00158E  6E53               	movwf	??_gpio_pin_write^0,c
  1590   001590  0E01               	movlw	1
  1591   001592  6E54               	movwf	(??_gpio_pin_write+1)^0,c
  1592   001594  2A53               	incf	??_gpio_pin_write^0,f,c
  1593   001596  EFCF  F00A         	goto	u1584
  1594   00159A                     u1585:
  1595   00159A  90D8               	bcf	status,0,c
  1596   00159C  3654               	rlcf	(??_gpio_pin_write+1)^0,f,c
  1597   00159E                     u1584:
  1598   00159E  2E53               	decfsz	??_gpio_pin_write^0,f,c
  1599   0015A0  EFCD  F00A         	goto	u1585
  1600   0015A4  5051               	movf	gpio_pin_write@pin_confg^0,w,c
  1601   0015A6  6ED9               	movwf	fsr2l,c
  1602   0015A8  6ADA               	clrf	fsr2h,c
  1603   0015AA  50DF               	movf	223,w,c
  1604   0015AC  0B07               	andlw	7
  1605   0015AE  0D02               	mullw	2
  1606   0015B0  50F3               	movf	243,w,c
  1607   0015B2  0F0B               	addlw	low _lat_reg
  1608   0015B4  6ED9               	movwf	fsr2l,c
  1609   0015B6  6ADA               	clrf	fsr2h,c
  1610   0015B8  CFDE F055          	movff	postinc2,??_gpio_pin_write+2
  1611   0015BC  CFDD F056          	movff	postdec2,??_gpio_pin_write+3
  1612   0015C0  C055  FFD9         	movff	??_gpio_pin_write+2,fsr2l
  1613   0015C4  C056  FFDA         	movff	??_gpio_pin_write+3,fsr2h
  1614   0015C8  5054               	movf	(??_gpio_pin_write+1)^0,w,c
  1615   0015CA  12DF               	iorwf	indf2,f,c
  1616                           
  1617                           ;MCAL_Layer/GPIO/hal_gpio.c: 98:                 break;
  1618   0015CC  EFFD  F00A         	goto	l3150
  1619   0015D0                     l3148:
  1620   0015D0  5052               	movf	gpio_pin_write@pin_state^0,w,c
  1621   0015D2  6E53               	movwf	??_gpio_pin_write^0,c
  1622   0015D4  6A54               	clrf	(??_gpio_pin_write+1)^0,c
  1623                           
  1624                           ; Switch on 2 bytes has been partitioned into a top level switch of size 1, and 1 sub-sw
      +                          itches
  1625                           ; Switch size 1, requested type "simple"
  1626                           ; Number of cases is 1, Range of values is 0 to 0
  1627                           ; switch strategies available:
  1628                           ; Name         Instructions Cycles
  1629                           ; simple_byte            4     3 (average)
  1630                           ;	Chosen strategy is simple_byte
  1631   0015D6  5054               	movf	(??_gpio_pin_write+1)^0,w,c
  1632   0015D8  0A00               	xorlw	0	; case 0
  1633   0015DA  B4D8               	btfsc	status,2,c
  1634   0015DC  EFF2  F00A         	goto	l4134
  1635   0015E0  EF91  F00A         	goto	l3140
  1636   0015E4                     l4134:
  1637                           
  1638                           ; Switch size 1, requested type "simple"
  1639                           ; Number of cases is 2, Range of values is 0 to 1
  1640                           ; switch strategies available:
  1641                           ; Name         Instructions Cycles
  1642                           ; simple_byte            7     4 (average)
  1643                           ;	Chosen strategy is simple_byte
  1644   0015E4  5053               	movf	??_gpio_pin_write^0,w,c
  1645   0015E6  0A00               	xorlw	0	; case 0
  1646   0015E8  B4D8               	btfsc	status,2,c
  1647   0015EA  EF95  F00A         	goto	l3142
  1648   0015EE  0A01               	xorlw	1	; case 1
  1649   0015F0  B4D8               	btfsc	status,2,c
  1650   0015F2  EFC0  F00A         	goto	l3144
  1651   0015F6  EF91  F00A         	goto	l3140
  1652   0015FA                     l3150:
  1653                           
  1654                           ;MCAL_Layer/GPIO/hal_gpio.c: 106:     return ret;
  1655   0015FA  5058               	movf	gpio_pin_write@ret^0,w,c
  1656   0015FC  0012               	return		;funcret
  1657   0015FE                     __end_of_gpio_pin_write:
  1658                           	callstack 0
  1659                           
  1660 ;; *************** function _interrupt_INTx_Init *****************
  1661 ;; Defined at:
  1662 ;;		line 70 in file "MCAL_Layer/Interrupt/mcal_external_interrupt.c"
  1663 ;; Parameters:    Size  Location     Type
  1664 ;;  intr_obj        1   15[COMRAM] PTR const struct .
  1665 ;;		 -> int0_obj(6), 
  1666 ;; Auto vars:     Size  Location     Type
  1667 ;;  ret             1   16[COMRAM] unsigned char 
  1668 ;; Return value:  Size  Location     Type
  1669 ;;                  1    wreg      unsigned char 
  1670 ;; Registers used:
  1671 ;;		wreg, fsr2l, fsr2h, status,2, status,0, prodl, prodh, cstack
  1672 ;; Tracked objects:
  1673 ;;		On entry : 0/0
  1674 ;;		On exit  : 0/0
  1675 ;;		Unchanged: 0/0
  1676 ;; Data sizes:     COMRAM   BANK0   BANK1   BANK2   BANK3   BANK4   BANK5   BANK6   BANK7   BANK8   BANK9  BANK10  BANK1
      +1  BANK12  BANK13  BANK14  BANK15
  1677 ;;      Params:         1       0       0       0       0       0       0       0       0       0       0       0       
      +0       0       0       0       0
  1678 ;;      Locals:         1       0       0       0       0       0       0       0       0       0       0       0       
      +0       0       0       0       0
  1679 ;;      Temps:          0       0       0       0       0       0       0       0       0       0       0       0       
      +0       0       0       0       0
  1680 ;;      Totals:         2       0       0       0       0       0       0       0       0       0       0       0       
      +0       0       0       0       0
  1681 ;;Total ram usage:        2 bytes
  1682 ;; Hardware stack levels used: 1
  1683 ;; Hardware stack levels required when called: 6
  1684 ;; This function calls:
  1685 ;;		_interrupt_INTx_Disable
  1686 ;;		_interrupt_INTx_Enable
  1687 ;;		_interrupt_INTx_clear_flag
  1688 ;;		_interrupt_INTx_edge_set
  1689 ;;		_interrupt_INTx_pin_cfg
  1690 ;;		_interrupt_INTx_set_interrupt_handler
  1691 ;; This function is called by:
  1692 ;;		_app_init
  1693 ;; This function uses a non-reentrant model
  1694 ;;
  1695                           
  1696                           	psect	text12
  1697   001A82                     __ptext12:
  1698                           	callstack 0
  1699   001A82                     _interrupt_INTx_Init:
  1700                           	callstack 23
  1701   001A82                     
  1702                           ;MCAL_Layer/Interrupt/mcal_external_interrupt.c: 72:     if(intr_obj == ((void*)0) )
  1703   001A82  505A               	movf	interrupt_INTx_Init@intr_obj^0,w,c
  1704   001A84  A4D8               	btfss	status,2,c
  1705   001A86  EF47  F00D         	goto	u1961
  1706   001A8A  EF49  F00D         	goto	u1960
  1707   001A8E                     u1961:
  1708   001A8E  EF4D  F00D         	goto	l3516
  1709   001A92                     u1960:
  1710   001A92                     
  1711                           ;MCAL_Layer/Interrupt/mcal_external_interrupt.c: 73:     {;MCAL_Layer/Interrupt/mcal_ext
      +                          ernal_interrupt.c: 74:         ret=((Std_RetrunType) 0x00);
  1712   001A92  0E00               	movlw	0
  1713   001A94  6E5B               	movwf	interrupt_INTx_Init@ret^0,c
  1714                           
  1715                           ;MCAL_Layer/Interrupt/mcal_external_interrupt.c: 75:     }
  1716   001A96  EF69  F00D         	goto	l3524
  1717   001A9A                     l3516:
  1718                           
  1719                           ;MCAL_Layer/Interrupt/mcal_external_interrupt.c: 77:     {;MCAL_Layer/Interrupt/mcal_ext
      +                          ernal_interrupt.c: 79:         ret=interrupt_INTx_Disable(intr_obj);
  1720   001A9A  C05A  F051         	movff	interrupt_INTx_Init@intr_obj,interrupt_INTx_Disable@intr_obj
  1721   001A9E  EC47  F00C         	call	_interrupt_INTx_Disable	;wreg free
  1722   001AA2  6E5B               	movwf	interrupt_INTx_Init@ret^0,c
  1723                           
  1724                           ;MCAL_Layer/Interrupt/mcal_external_interrupt.c: 81:         ret=interrupt_INTx_clear_fl
      +                          ag(intr_obj);
  1725   001AA4  C05A  F051         	movff	interrupt_INTx_Init@intr_obj,interrupt_INTx_clear_flag@intr_obj
  1726   001AA8  EC10  F00C         	call	_interrupt_INTx_clear_flag	;wreg free
  1727   001AAC  6E5B               	movwf	interrupt_INTx_Init@ret^0,c
  1728                           
  1729                           ;MCAL_Layer/Interrupt/mcal_external_interrupt.c: 83:         ret=interrupt_INTx_edge_set
      +                          (intr_obj);
  1730   001AAE  C05A  F051         	movff	interrupt_INTx_Init@intr_obj,interrupt_INTx_edge_set@intr_obj
  1731   001AB2  ECE9  F009         	call	_interrupt_INTx_edge_set	;wreg free
  1732   001AB6  6E5B               	movwf	interrupt_INTx_Init@ret^0,c
  1733   001AB8  C05A  F058         	movff	interrupt_INTx_Init@intr_obj,interrupt_INTx_pin_cfg@intr_obj
  1734   001ABC  EC38  F00E         	call	_interrupt_INTx_pin_cfg	;wreg free
  1735   001AC0  C05A  F053         	movff	interrupt_INTx_Init@intr_obj,interrupt_INTx_set_interrupt_handler@intr_obj
  1736   001AC4  ECFF  F00A         	call	_interrupt_INTx_set_interrupt_handler	;wreg free
  1737   001AC8                     
  1738                           ;MCAL_Layer/Interrupt/mcal_external_interrupt.c: 89:         ret=interrupt_INTx_Enable(i
      +                          ntr_obj);
  1739   001AC8  C05A  F051         	movff	interrupt_INTx_Init@intr_obj,interrupt_INTx_Enable@intr_obj
  1740   001ACC  EC9C  F00B         	call	_interrupt_INTx_Enable	;wreg free
  1741   001AD0  6E5B               	movwf	interrupt_INTx_Init@ret^0,c
  1742   001AD2                     l3524:
  1743                           
  1744                           ;MCAL_Layer/Interrupt/mcal_external_interrupt.c: 94:     return ret;
  1745   001AD2  505B               	movf	interrupt_INTx_Init@ret^0,w,c
  1746   001AD4  0012               	return		;funcret
  1747   001AD6                     __end_of_interrupt_INTx_Init:
  1748                           	callstack 0
  1749                           
  1750 ;; *************** function _interrupt_INTx_set_interrupt_handler *****************
  1751 ;; Defined at:
  1752 ;;		line 553 in file "MCAL_Layer/Interrupt/mcal_external_interrupt.c"
  1753 ;; Parameters:    Size  Location     Type
  1754 ;;  intr_obj        1    8[COMRAM] PTR const struct .
  1755 ;;		 -> int0_obj(6), 
  1756 ;; Auto vars:     Size  Location     Type
  1757 ;;  ret             1   11[COMRAM] unsigned char 
  1758 ;; Return value:  Size  Location     Type
  1759 ;;                  1    wreg      unsigned char 
  1760 ;; Registers used:
  1761 ;;		wreg, fsr2l, fsr2h, status,2, status,0, cstack
  1762 ;; Tracked objects:
  1763 ;;		On entry : 0/0
  1764 ;;		On exit  : 0/0
  1765 ;;		Unchanged: 0/0
  1766 ;; Data sizes:     COMRAM   BANK0   BANK1   BANK2   BANK3   BANK4   BANK5   BANK6   BANK7   BANK8   BANK9  BANK10  BANK1
      +1  BANK12  BANK13  BANK14  BANK15
  1767 ;;      Params:         1       0       0       0       0       0       0       0       0       0       0       0       
      +0       0       0       0       0
  1768 ;;      Locals:         1       0       0       0       0       0       0       0       0       0       0       0       
      +0       0       0       0       0
  1769 ;;      Temps:          2       0       0       0       0       0       0       0       0       0       0       0       
      +0       0       0       0       0
  1770 ;;      Totals:         4       0       0       0       0       0       0       0       0       0       0       0       
      +0       0       0       0       0
  1771 ;;Total ram usage:        4 bytes
  1772 ;; Hardware stack levels used: 1
  1773 ;; Hardware stack levels required when called: 5
  1774 ;; This function calls:
  1775 ;;		_INT0_set_interrupt_handler
  1776 ;;		_INT1_set_interrupt_handler
  1777 ;;		_INT2_set_interrupt_handler
  1778 ;; This function is called by:
  1779 ;;		_interrupt_INTx_Init
  1780 ;; This function uses a non-reentrant model
  1781 ;;
  1782                           
  1783                           	psect	text13
  1784   0015FE                     __ptext13:
  1785                           	callstack 0
  1786   0015FE                     _interrupt_INTx_set_interrupt_handler:
  1787                           	callstack 23
  1788   0015FE                     
  1789                           ;MCAL_Layer/Interrupt/mcal_external_interrupt.c: 555:     if(intr_obj == ((void*)0) )
  1790   0015FE  5053               	movf	interrupt_INTx_set_interrupt_handler@intr_obj^0,w,c
  1791   001600  A4D8               	btfss	status,2,c
  1792   001602  EF05  F00B         	goto	u1841
  1793   001606  EF07  F00B         	goto	u1840
  1794   00160A                     u1841:
  1795   00160A  EF36  F00B         	goto	l3370
  1796   00160E                     u1840:
  1797   00160E                     l3354:
  1798                           
  1799                           ;MCAL_Layer/Interrupt/mcal_external_interrupt.c: 556:     {;MCAL_Layer/Interrupt/mcal_ex
      +                          ternal_interrupt.c: 557:         ret=((Std_RetrunType) 0x00);
  1800   00160E  0E00               	movlw	0
  1801   001610  6E56               	movwf	interrupt_INTx_set_interrupt_handler@ret^0,c
  1802                           
  1803                           ;MCAL_Layer/Interrupt/mcal_external_interrupt.c: 558:     }
  1804   001612  EF54  F00B         	goto	l3372
  1805   001616                     l3356:
  1806                           
  1807                           ;MCAL_Layer/Interrupt/mcal_external_interrupt.c: 565:                 INT0_set_interrupt
      +                          _handler(intr_obj->external_interrupt_handler);
  1808   001616  5053               	movf	interrupt_INTx_set_interrupt_handler@intr_obj^0,w,c
  1809   001618  6ED9               	movwf	fsr2l,c
  1810   00161A  6ADA               	clrf	fsr2h,c
  1811   00161C  0E04               	movlw	4
  1812   00161E  26D9               	addwf	fsr2l,f,c
  1813   001620  CFDE F051          	movff	postinc2,INT0_set_interrupt_handler@interrupt_handler
  1814   001624  CFDD F052          	movff	postdec2,INT0_set_interrupt_handler@interrupt_handler+1
  1815   001628  EC8D  F00E         	call	_INT0_set_interrupt_handler	;wreg free
  1816   00162C                     l3358:
  1817                           
  1818                           ;MCAL_Layer/Interrupt/mcal_external_interrupt.c: 566:                 ret=((Std_RetrunTy
      +                          pe) 0x01);
  1819   00162C  0E01               	movlw	1
  1820   00162E  6E56               	movwf	interrupt_INTx_set_interrupt_handler@ret^0,c
  1821                           
  1822                           ;MCAL_Layer/Interrupt/mcal_external_interrupt.c: 567:                 break;
  1823   001630  EF54  F00B         	goto	l3372
  1824   001634                     l3360:
  1825                           
  1826                           ;MCAL_Layer/Interrupt/mcal_external_interrupt.c: 569:                 ret=((Std_RetrunTy
      +                          pe) 0x01);
  1827   001634  0E01               	movlw	1
  1828   001636  6E56               	movwf	interrupt_INTx_set_interrupt_handler@ret^0,c
  1829   001638                     
  1830                           ;MCAL_Layer/Interrupt/mcal_external_interrupt.c: 570:                 INT1_set_interrupt
      +                          _handler(intr_obj->external_interrupt_handler);
  1831   001638  5053               	movf	interrupt_INTx_set_interrupt_handler@intr_obj^0,w,c
  1832   00163A  6ED9               	movwf	fsr2l,c
  1833   00163C  6ADA               	clrf	fsr2h,c
  1834   00163E  0E04               	movlw	4
  1835   001640  26D9               	addwf	fsr2l,f,c
  1836   001642  CFDE F051          	movff	postinc2,INT1_set_interrupt_handler@interrupt_handler
  1837   001646  CFDD F052          	movff	postdec2,INT1_set_interrupt_handler@interrupt_handler+1
  1838   00164A  EC7D  F00E         	call	_INT1_set_interrupt_handler	;wreg free
  1839                           
  1840                           ;MCAL_Layer/Interrupt/mcal_external_interrupt.c: 571:                 break;
  1841   00164E  EF54  F00B         	goto	l3372
  1842   001652                     l3364:
  1843                           
  1844                           ;MCAL_Layer/Interrupt/mcal_external_interrupt.c: 573:                 INT2_set_interrupt
      +                          _handler(intr_obj->external_interrupt_handler);
  1845   001652  5053               	movf	interrupt_INTx_set_interrupt_handler@intr_obj^0,w,c
  1846   001654  6ED9               	movwf	fsr2l,c
  1847   001656  6ADA               	clrf	fsr2h,c
  1848   001658  0E04               	movlw	4
  1849   00165A  26D9               	addwf	fsr2l,f,c
  1850   00165C  CFDE F051          	movff	postinc2,INT2_set_interrupt_handler@interrupt_handler
  1851   001660  CFDD F052          	movff	postdec2,INT2_set_interrupt_handler@interrupt_handler+1
  1852   001664  EC6D  F00E         	call	_INT2_set_interrupt_handler	;wreg free
  1853   001668  EF16  F00B         	goto	l3358
  1854   00166C                     l3370:
  1855   00166C  5053               	movf	interrupt_INTx_set_interrupt_handler@intr_obj^0,w,c
  1856   00166E  6ED9               	movwf	fsr2l,c
  1857   001670  6ADA               	clrf	fsr2h,c
  1858   001672  0E02               	movlw	2
  1859   001674  26D9               	addwf	fsr2l,f,c
  1860   001676  50DF               	movf	indf2,w,c
  1861   001678  6E54               	movwf	??_interrupt_INTx_set_interrupt_handler^0,c
  1862   00167A  6A55               	clrf	(??_interrupt_INTx_set_interrupt_handler+1)^0,c
  1863                           
  1864                           ; Switch on 2 bytes has been partitioned into a top level switch of size 1, and 1 sub-sw
      +                          itches
  1865                           ; Switch size 1, requested type "simple"
  1866                           ; Number of cases is 1, Range of values is 0 to 0
  1867                           ; switch strategies available:
  1868                           ; Name         Instructions Cycles
  1869                           ; simple_byte            4     3 (average)
  1870                           ;	Chosen strategy is simple_byte
  1871   00167C  5055               	movf	(??_interrupt_INTx_set_interrupt_handler+1)^0,w,c
  1872   00167E  0A00               	xorlw	0	; case 0
  1873   001680  B4D8               	btfsc	status,2,c
  1874   001682  EF45  F00B         	goto	l4136
  1875   001686  EF07  F00B         	goto	l3354
  1876   00168A                     l4136:
  1877                           
  1878                           ; Switch size 1, requested type "simple"
  1879                           ; Number of cases is 3, Range of values is 0 to 2
  1880                           ; switch strategies available:
  1881                           ; Name         Instructions Cycles
  1882                           ; simple_byte           10     6 (average)
  1883                           ;	Chosen strategy is simple_byte
  1884   00168A  5054               	movf	??_interrupt_INTx_set_interrupt_handler^0,w,c
  1885   00168C  0A00               	xorlw	0	; case 0
  1886   00168E  B4D8               	btfsc	status,2,c
  1887   001690  EF0B  F00B         	goto	l3356
  1888   001694  0A01               	xorlw	1	; case 1
  1889   001696  B4D8               	btfsc	status,2,c
  1890   001698  EF1A  F00B         	goto	l3360
  1891   00169C  0A03               	xorlw	3	; case 2
  1892   00169E  B4D8               	btfsc	status,2,c
  1893   0016A0  EF29  F00B         	goto	l3364
  1894   0016A4  EF07  F00B         	goto	l3354
  1895   0016A8                     l3372:
  1896                           
  1897                           ;MCAL_Layer/Interrupt/mcal_external_interrupt.c: 584:     return ret;
  1898   0016A8  5056               	movf	interrupt_INTx_set_interrupt_handler@ret^0,w,c
  1899   0016AA  0012               	return		;funcret
  1900   0016AC                     __end_of_interrupt_INTx_set_interrupt_handler:
  1901                           	callstack 0
  1902                           
  1903 ;; *************** function _INT2_set_interrupt_handler *****************
  1904 ;; Defined at:
  1905 ;;		line 531 in file "MCAL_Layer/Interrupt/mcal_external_interrupt.c"
  1906 ;; Parameters:    Size  Location     Type
  1907 ;;  interrupt_ha    2    6[COMRAM] PTR FTN()void 
  1908 ;;		 -> ISR_INT0_App(1), 
  1909 ;; Auto vars:     Size  Location     Type
  1910 ;;  ret             1    0        unsigned char 
  1911 ;; Return value:  Size  Location     Type
  1912 ;;                  1    wreg      unsigned char 
  1913 ;; Registers used:
  1914 ;;		wreg, status,2, status,0
  1915 ;; Tracked objects:
  1916 ;;		On entry : 0/0
  1917 ;;		On exit  : 0/0
  1918 ;;		Unchanged: 0/0
  1919 ;; Data sizes:     COMRAM   BANK0   BANK1   BANK2   BANK3   BANK4   BANK5   BANK6   BANK7   BANK8   BANK9  BANK10  BANK1
      +1  BANK12  BANK13  BANK14  BANK15
  1920 ;;      Params:         2       0       0       0       0       0       0       0       0       0       0       0       
      +0       0       0       0       0
  1921 ;;      Locals:         0       0       0       0       0       0       0       0       0       0       0       0       
      +0       0       0       0       0
  1922 ;;      Temps:          0       0       0       0       0       0       0       0       0       0       0       0       
      +0       0       0       0       0
  1923 ;;      Totals:         2       0       0       0       0       0       0       0       0       0       0       0       
      +0       0       0       0       0
  1924 ;;Total ram usage:        2 bytes
  1925 ;; Hardware stack levels used: 1
  1926 ;; Hardware stack levels required when called: 4
  1927 ;; This function calls:
  1928 ;;		Nothing
  1929 ;; This function is called by:
  1930 ;;		_interrupt_INTx_set_interrupt_handler
  1931 ;; This function uses a non-reentrant model
  1932 ;;
  1933                           
  1934                           	psect	text14
  1935   001CDA                     __ptext14:
  1936                           	callstack 0
  1937   001CDA                     _INT2_set_interrupt_handler:
  1938                           	callstack 23
  1939   001CDA                     
  1940                           ;MCAL_Layer/Interrupt/mcal_external_interrupt.c: 533:     if(interrupt_handler == ((void
      +                          *)0) )
  1941   001CDA  5051               	movf	INT2_set_interrupt_handler@interrupt_handler^0,w,c
  1942   001CDC  1052               	iorwf	(INT2_set_interrupt_handler@interrupt_handler+1)^0,w,c
  1943   001CDE  A4D8               	btfss	status,2,c
  1944   001CE0  EF74  F00E         	goto	u1671
  1945   001CE4  EF76  F00E         	goto	u1670
  1946   001CE8                     u1671:
  1947   001CE8  EF78  F00E         	goto	l3210
  1948   001CEC                     u1670:
  1949   001CEC                     
  1950                           ;MCAL_Layer/Interrupt/mcal_external_interrupt.c: 536:     }
  1951   001CEC  EF7C  F00E         	goto	l884
  1952   001CF0                     l3210:
  1953                           
  1954                           ;MCAL_Layer/Interrupt/mcal_external_interrupt.c: 538:     {;MCAL_Layer/Interrupt/mcal_ex
      +                          ternal_interrupt.c: 539:         INT2_InterruptHandler = interrupt_handler;
  1955   001CF0  C051  F03B         	movff	INT2_set_interrupt_handler@interrupt_handler,_INT2_InterruptHandler
  1956   001CF4  C052  F03C         	movff	INT2_set_interrupt_handler@interrupt_handler+1,_INT2_InterruptHandler+1
  1957   001CF8                     l884:
  1958   001CF8  0012               	return		;funcret
  1959   001CFA                     __end_of_INT2_set_interrupt_handler:
  1960                           	callstack 0
  1961                           
  1962 ;; *************** function _INT1_set_interrupt_handler *****************
  1963 ;; Defined at:
  1964 ;;		line 509 in file "MCAL_Layer/Interrupt/mcal_external_interrupt.c"
  1965 ;; Parameters:    Size  Location     Type
  1966 ;;  interrupt_ha    2    6[COMRAM] PTR FTN()void 
  1967 ;;		 -> ISR_INT0_App(1), 
  1968 ;; Auto vars:     Size  Location     Type
  1969 ;;  ret             1    0        unsigned char 
  1970 ;; Return value:  Size  Location     Type
  1971 ;;                  1    wreg      unsigned char 
  1972 ;; Registers used:
  1973 ;;		wreg, status,2, status,0
  1974 ;; Tracked objects:
  1975 ;;		On entry : 0/0
  1976 ;;		On exit  : 0/0
  1977 ;;		Unchanged: 0/0
  1978 ;; Data sizes:     COMRAM   BANK0   BANK1   BANK2   BANK3   BANK4   BANK5   BANK6   BANK7   BANK8   BANK9  BANK10  BANK1
      +1  BANK12  BANK13  BANK14  BANK15
  1979 ;;      Params:         2       0       0       0       0       0       0       0       0       0       0       0       
      +0       0       0       0       0
  1980 ;;      Locals:         0       0       0       0       0       0       0       0       0       0       0       0       
      +0       0       0       0       0
  1981 ;;      Temps:          0       0       0       0       0       0       0       0       0       0       0       0       
      +0       0       0       0       0
  1982 ;;      Totals:         2       0       0       0       0       0       0       0       0       0       0       0       
      +0       0       0       0       0
  1983 ;;Total ram usage:        2 bytes
  1984 ;; Hardware stack levels used: 1
  1985 ;; Hardware stack levels required when called: 4
  1986 ;; This function calls:
  1987 ;;		Nothing
  1988 ;; This function is called by:
  1989 ;;		_interrupt_INTx_set_interrupt_handler
  1990 ;; This function uses a non-reentrant model
  1991 ;;
  1992                           
  1993                           	psect	text15
  1994   001CFA                     __ptext15:
  1995                           	callstack 0
  1996   001CFA                     _INT1_set_interrupt_handler:
  1997                           	callstack 23
  1998   001CFA                     
  1999                           ;MCAL_Layer/Interrupt/mcal_external_interrupt.c: 511:     if(interrupt_handler == ((void
      +                          *)0) )
  2000   001CFA  5051               	movf	INT1_set_interrupt_handler@interrupt_handler^0,w,c
  2001   001CFC  1052               	iorwf	(INT1_set_interrupt_handler@interrupt_handler+1)^0,w,c
  2002   001CFE  A4D8               	btfss	status,2,c
  2003   001D00  EF84  F00E         	goto	u1661
  2004   001D04  EF86  F00E         	goto	u1660
  2005   001D08                     u1661:
  2006   001D08  EF88  F00E         	goto	l3198
  2007   001D0C                     u1660:
  2008   001D0C                     
  2009                           ;MCAL_Layer/Interrupt/mcal_external_interrupt.c: 514:     }
  2010   001D0C  EF8C  F00E         	goto	l879
  2011   001D10                     l3198:
  2012                           
  2013                           ;MCAL_Layer/Interrupt/mcal_external_interrupt.c: 516:     {;MCAL_Layer/Interrupt/mcal_ex
      +                          ternal_interrupt.c: 517:         INT1_InterruptHandler = interrupt_handler;
  2014   001D10  C051  F03D         	movff	INT1_set_interrupt_handler@interrupt_handler,_INT1_InterruptHandler
  2015   001D14  C052  F03E         	movff	INT1_set_interrupt_handler@interrupt_handler+1,_INT1_InterruptHandler+1
  2016   001D18                     l879:
  2017   001D18  0012               	return		;funcret
  2018   001D1A                     __end_of_INT1_set_interrupt_handler:
  2019                           	callstack 0
  2020                           
  2021 ;; *************** function _INT0_set_interrupt_handler *****************
  2022 ;; Defined at:
  2023 ;;		line 485 in file "MCAL_Layer/Interrupt/mcal_external_interrupt.c"
  2024 ;; Parameters:    Size  Location     Type
  2025 ;;  interrupt_ha    2    6[COMRAM] PTR FTN()void 
  2026 ;;		 -> ISR_INT0_App(1), 
  2027 ;; Auto vars:     Size  Location     Type
  2028 ;;  ret             1    0        unsigned char 
  2029 ;; Return value:  Size  Location     Type
  2030 ;;                  1    wreg      unsigned char 
  2031 ;; Registers used:
  2032 ;;		wreg, status,2, status,0
  2033 ;; Tracked objects:
  2034 ;;		On entry : 0/0
  2035 ;;		On exit  : 0/0
  2036 ;;		Unchanged: 0/0
  2037 ;; Data sizes:     COMRAM   BANK0   BANK1   BANK2   BANK3   BANK4   BANK5   BANK6   BANK7   BANK8   BANK9  BANK10  BANK1
      +1  BANK12  BANK13  BANK14  BANK15
  2038 ;;      Params:         2       0       0       0       0       0       0       0       0       0       0       0       
      +0       0       0       0       0
  2039 ;;      Locals:         0       0       0       0       0       0       0       0       0       0       0       0       
      +0       0       0       0       0
  2040 ;;      Temps:          0       0       0       0       0       0       0       0       0       0       0       0       
      +0       0       0       0       0
  2041 ;;      Totals:         2       0       0       0       0       0       0       0       0       0       0       0       
      +0       0       0       0       0
  2042 ;;Total ram usage:        2 bytes
  2043 ;; Hardware stack levels used: 1
  2044 ;; Hardware stack levels required when called: 4
  2045 ;; This function calls:
  2046 ;;		Nothing
  2047 ;; This function is called by:
  2048 ;;		_interrupt_INTx_set_interrupt_handler
  2049 ;; This function uses a non-reentrant model
  2050 ;;
  2051                           
  2052                           	psect	text16
  2053   001D1A                     __ptext16:
  2054                           	callstack 0
  2055   001D1A                     _INT0_set_interrupt_handler:
  2056                           	callstack 23
  2057   001D1A                     
  2058                           ;MCAL_Layer/Interrupt/mcal_external_interrupt.c: 488:     if(interrupt_handler == ((void
      +                          *)0) )
  2059   001D1A  5051               	movf	INT0_set_interrupt_handler@interrupt_handler^0,w,c
  2060   001D1C  1052               	iorwf	(INT0_set_interrupt_handler@interrupt_handler+1)^0,w,c
  2061   001D1E  A4D8               	btfss	status,2,c
  2062   001D20  EF94  F00E         	goto	u1651
  2063   001D24  EF96  F00E         	goto	u1650
  2064   001D28                     u1651:
  2065   001D28  EF98  F00E         	goto	l3186
  2066   001D2C                     u1650:
  2067   001D2C                     
  2068                           ;MCAL_Layer/Interrupt/mcal_external_interrupt.c: 491:     }
  2069   001D2C  EF9C  F00E         	goto	l874
  2070   001D30                     l3186:
  2071                           
  2072                           ;MCAL_Layer/Interrupt/mcal_external_interrupt.c: 493:     {;MCAL_Layer/Interrupt/mcal_ex
      +                          ternal_interrupt.c: 494:         INT0_InterruptHandler = interrupt_handler;
  2073   001D30  C051  F03F         	movff	INT0_set_interrupt_handler@interrupt_handler,_INT0_InterruptHandler
  2074   001D34  C052  F040         	movff	INT0_set_interrupt_handler@interrupt_handler+1,_INT0_InterruptHandler+1
  2075   001D38                     l874:
  2076   001D38  0012               	return		;funcret
  2077   001D3A                     __end_of_INT0_set_interrupt_handler:
  2078                           	callstack 0
  2079                           
  2080 ;; *************** function _interrupt_INTx_pin_cfg *****************
  2081 ;; Defined at:
  2082 ;;		line 463 in file "MCAL_Layer/Interrupt/mcal_external_interrupt.c"
  2083 ;; Parameters:    Size  Location     Type
  2084 ;;  intr_obj        1   13[COMRAM] PTR const struct .
  2085 ;;		 -> int0_obj(6), 
  2086 ;; Auto vars:     Size  Location     Type
  2087 ;;  ret             1   14[COMRAM] unsigned char 
  2088 ;; Return value:  Size  Location     Type
  2089 ;;                  1    wreg      unsigned char 
  2090 ;; Registers used:
  2091 ;;		wreg, fsr2l, fsr2h, status,2, status,0, prodl, prodh, cstack
  2092 ;; Tracked objects:
  2093 ;;		On entry : 0/0
  2094 ;;		On exit  : 0/0
  2095 ;;		Unchanged: 0/0
  2096 ;; Data sizes:     COMRAM   BANK0   BANK1   BANK2   BANK3   BANK4   BANK5   BANK6   BANK7   BANK8   BANK9  BANK10  BANK1
      +1  BANK12  BANK13  BANK14  BANK15
  2097 ;;      Params:         1       0       0       0       0       0       0       0       0       0       0       0       
      +0       0       0       0       0
  2098 ;;      Locals:         1       0       0       0       0       0       0       0       0       0       0       0       
      +0       0       0       0       0
  2099 ;;      Temps:          0       0       0       0       0       0       0       0       0       0       0       0       
      +0       0       0       0       0
  2100 ;;      Totals:         2       0       0       0       0       0       0       0       0       0       0       0       
      +0       0       0       0       0
  2101 ;;Total ram usage:        2 bytes
  2102 ;; Hardware stack levels used: 1
  2103 ;; Hardware stack levels required when called: 5
  2104 ;; This function calls:
  2105 ;;		_gpio_pin_direction_init
  2106 ;; This function is called by:
  2107 ;;		_interrupt_INTx_Init
  2108 ;; This function uses a non-reentrant model
  2109 ;;
  2110                           
  2111                           	psect	text17
  2112   001C70                     __ptext17:
  2113                           	callstack 0
  2114   001C70                     _interrupt_INTx_pin_cfg:
  2115                           	callstack 23
  2116   001C70                     
  2117                           ;MCAL_Layer/Interrupt/mcal_external_interrupt.c: 465:     if(intr_obj == ((void*)0) )
  2118   001C70  5058               	movf	interrupt_INTx_pin_cfg@intr_obj^0,w,c
  2119   001C72  A4D8               	btfss	status,2,c
  2120   001C74  EF3E  F00E         	goto	u1831
  2121   001C78  EF40  F00E         	goto	u1830
  2122   001C7C                     u1831:
  2123   001C7C  EF44  F00E         	goto	l3346
  2124   001C80                     u1830:
  2125   001C80                     
  2126                           ;MCAL_Layer/Interrupt/mcal_external_interrupt.c: 466:     {;MCAL_Layer/Interrupt/mcal_ex
      +                          ternal_interrupt.c: 467:         ret=((Std_RetrunType) 0x00);
  2127   001C80  0E00               	movlw	0
  2128   001C82  6E59               	movwf	interrupt_INTx_pin_cfg@ret^0,c
  2129                           
  2130                           ;MCAL_Layer/Interrupt/mcal_external_interrupt.c: 468:     }
  2131   001C84  EF49  F00E         	goto	l3348
  2132   001C88                     l3346:
  2133                           
  2134                           ;MCAL_Layer/Interrupt/mcal_external_interrupt.c: 470:     {;MCAL_Layer/Interrupt/mcal_ex
      +                          ternal_interrupt.c: 472:         ret=gpio_pin_direction_init(&(intr_obj->intx_pin));
  2135   001C88  C058  F051         	movff	interrupt_INTx_pin_cfg@intr_obj,gpio_pin_direction_init@pin_confg
  2136   001C8C  EC56  F009         	call	_gpio_pin_direction_init	;wreg free
  2137   001C90  6E59               	movwf	interrupt_INTx_pin_cfg@ret^0,c
  2138   001C92                     l3348:
  2139                           
  2140                           ;MCAL_Layer/Interrupt/mcal_external_interrupt.c: 476:     return ret;
  2141   001C92  5059               	movf	interrupt_INTx_pin_cfg@ret^0,w,c
  2142   001C94  0012               	return		;funcret
  2143   001C96                     __end_of_interrupt_INTx_pin_cfg:
  2144                           	callstack 0
  2145                           
  2146 ;; *************** function _gpio_pin_direction_init *****************
  2147 ;; Defined at:
  2148 ;;		line 19 in file "MCAL_Layer/GPIO/hal_gpio.c"
  2149 ;; Parameters:    Size  Location     Type
  2150 ;;  pin_confg       1    6[COMRAM] PTR const struct .
  2151 ;;		 -> int0_obj(6), relay_init@pin_obj(1), led_init@pin_cfg(1), 
  2152 ;; Auto vars:     Size  Location     Type
  2153 ;;  ret             1   12[COMRAM] unsigned char 
  2154 ;; Return value:  Size  Location     Type
  2155 ;;                  1    wreg      unsigned char 
  2156 ;; Registers used:
  2157 ;;		wreg, fsr2l, fsr2h, status,2, status,0, prodl, prodh
  2158 ;; Tracked objects:
  2159 ;;		On entry : 0/0
  2160 ;;		On exit  : 0/0
  2161 ;;		Unchanged: 0/0
  2162 ;; Data sizes:     COMRAM   BANK0   BANK1   BANK2   BANK3   BANK4   BANK5   BANK6   BANK7   BANK8   BANK9  BANK10  BANK1
      +1  BANK12  BANK13  BANK14  BANK15
  2163 ;;      Params:         1       0       0       0       0       0       0       0       0       0       0       0       
      +0       0       0       0       0
  2164 ;;      Locals:         1       0       0       0       0       0       0       0       0       0       0       0       
      +0       0       0       0       0
  2165 ;;      Temps:          5       0       0       0       0       0       0       0       0       0       0       0       
      +0       0       0       0       0
  2166 ;;      Totals:         7       0       0       0       0       0       0       0       0       0       0       0       
      +0       0       0       0       0
  2167 ;;Total ram usage:        7 bytes
  2168 ;; Hardware stack levels used: 1
  2169 ;; Hardware stack levels required when called: 4
  2170 ;; This function calls:
  2171 ;;		Nothing
  2172 ;; This function is called by:
  2173 ;;		_gpio_pin_init
  2174 ;;		_interrupt_INTx_pin_cfg
  2175 ;;		_button_init
  2176 ;;		_keypad_init
  2177 ;;		_interrupt_RBx_Init
  2178 ;; This function uses a non-reentrant model
  2179 ;;
  2180                           
  2181                           	psect	text18
  2182   0012AC                     __ptext18:
  2183                           	callstack 0
  2184   0012AC                     _gpio_pin_direction_init:
  2185                           	callstack 23
  2186   0012AC                     
  2187                           ;MCAL_Layer/GPIO/hal_gpio.c: 20:     Std_RetrunType ret = ((Std_RetrunType) 0x01);
  2188   0012AC  0E01               	movlw	1
  2189   0012AE  6E57               	movwf	gpio_pin_direction_init@ret^0,c
  2190                           
  2191                           ;MCAL_Layer/GPIO/hal_gpio.c: 21:     if(pin_confg == ((void*)0) || (pin_confg->pin > 8 -
      +                          1))
  2192   0012B0  5051               	movf	gpio_pin_direction_init@pin_confg^0,w,c
  2193   0012B2  B4D8               	btfsc	status,2,c
  2194   0012B4  EF5E  F009         	goto	u1591
  2195   0012B8  EF60  F009         	goto	u1590
  2196   0012BC                     u1591:
  2197   0012BC  EF70  F009         	goto	l3162
  2198   0012C0                     u1590:
  2199   0012C0  5051               	movf	gpio_pin_direction_init@pin_confg^0,w,c
  2200   0012C2  6ED9               	movwf	fsr2l,c
  2201   0012C4  6ADA               	clrf	fsr2h,c
  2202   0012C6  30DF               	rrcf	223,w,c
  2203   0012C8  32E8               	rrcf	wreg,f,c
  2204   0012CA  32E8               	rrcf	wreg,f,c
  2205   0012CC  0B07               	andlw	7
  2206   0012CE  6E52               	movwf	??_gpio_pin_direction_init^0,c
  2207   0012D0  0E07               	movlw	7
  2208   0012D2  6452               	cpfsgt	??_gpio_pin_direction_init^0,c
  2209   0012D4  EF6E  F009         	goto	u1601
  2210   0012D8  EF70  F009         	goto	u1600
  2211   0012DC                     u1601:
  2212   0012DC  EFC7  F009         	goto	l3170
  2213   0012E0                     u1600:
  2214   0012E0                     l3162:
  2215                           
  2216                           ;MCAL_Layer/GPIO/hal_gpio.c: 22:     {;MCAL_Layer/GPIO/hal_gpio.c: 23:         ret=((Std
      +                          _RetrunType) 0x00);
  2217   0012E0  0E00               	movlw	0
  2218   0012E2  6E57               	movwf	gpio_pin_direction_init@ret^0,c
  2219                           
  2220                           ;MCAL_Layer/GPIO/hal_gpio.c: 24:     }
  2221   0012E4  EFE7  F009         	goto	l3172
  2222   0012E8                     l3164:
  2223                           
  2224                           ;MCAL_Layer/GPIO/hal_gpio.c: 30:                 (*tris_reg[pin_confg->port] &=~ ((uint8
      +                          ) 1<<pin_confg->pin));
  2225   0012E8  5051               	movf	gpio_pin_direction_init@pin_confg^0,w,c
  2226   0012EA  6ED9               	movwf	fsr2l,c
  2227   0012EC  6ADA               	clrf	fsr2h,c
  2228   0012EE  30DF               	rrcf	223,w,c
  2229   0012F0  32E8               	rrcf	wreg,f,c
  2230   0012F2  32E8               	rrcf	wreg,f,c
  2231   0012F4  0B07               	andlw	7
  2232   0012F6  6E52               	movwf	??_gpio_pin_direction_init^0,c
  2233   0012F8  0E01               	movlw	1
  2234   0012FA  6E53               	movwf	(??_gpio_pin_direction_init+1)^0,c
  2235   0012FC  2A52               	incf	??_gpio_pin_direction_init^0,f,c
  2236   0012FE  EF83  F009         	goto	u1614
  2237   001302                     u1615:
  2238   001302  90D8               	bcf	status,0,c
  2239   001304  3653               	rlcf	(??_gpio_pin_direction_init+1)^0,f,c
  2240   001306                     u1614:
  2241   001306  2E52               	decfsz	??_gpio_pin_direction_init^0,f,c
  2242   001308  EF81  F009         	goto	u1615
  2243   00130C  5053               	movf	(??_gpio_pin_direction_init+1)^0,w,c
  2244   00130E  0AFF               	xorlw	255
  2245   001310  6E54               	movwf	(??_gpio_pin_direction_init+2)^0,c
  2246   001312  5051               	movf	gpio_pin_direction_init@pin_confg^0,w,c
  2247   001314  6ED9               	movwf	fsr2l,c
  2248   001316  6ADA               	clrf	fsr2h,c
  2249   001318  50DF               	movf	223,w,c
  2250   00131A  0B07               	andlw	7
  2251   00131C  0D02               	mullw	2
  2252   00131E  50F3               	movf	243,w,c
  2253   001320  0F15               	addlw	low _tris_reg
  2254   001322  6ED9               	movwf	fsr2l,c
  2255   001324  6ADA               	clrf	fsr2h,c
  2256   001326  CFDE F055          	movff	postinc2,??_gpio_pin_direction_init+3
  2257   00132A  CFDD F056          	movff	postdec2,??_gpio_pin_direction_init+4
  2258   00132E  C055  FFD9         	movff	??_gpio_pin_direction_init+3,fsr2l
  2259   001332  C056  FFDA         	movff	??_gpio_pin_direction_init+4,fsr2h
  2260   001336  5054               	movf	(??_gpio_pin_direction_init+2)^0,w,c
  2261   001338  16DF               	andwf	indf2,f,c
  2262                           
  2263                           ;MCAL_Layer/GPIO/hal_gpio.c: 31:                 break;
  2264   00133A  EFE7  F009         	goto	l3172
  2265   00133E                     l3166:
  2266                           
  2267                           ;MCAL_Layer/GPIO/hal_gpio.c: 33:                 (*tris_reg[pin_confg->port] |= ((uint8)
      +                           1<<pin_confg->pin));
  2268   00133E  5051               	movf	gpio_pin_direction_init@pin_confg^0,w,c
  2269   001340  6ED9               	movwf	fsr2l,c
  2270   001342  6ADA               	clrf	fsr2h,c
  2271   001344  30DF               	rrcf	223,w,c
  2272   001346  32E8               	rrcf	wreg,f,c
  2273   001348  32E8               	rrcf	wreg,f,c
  2274   00134A  0B07               	andlw	7
  2275   00134C  6E52               	movwf	??_gpio_pin_direction_init^0,c
  2276   00134E  0E01               	movlw	1
  2277   001350  6E53               	movwf	(??_gpio_pin_direction_init+1)^0,c
  2278   001352  2A52               	incf	??_gpio_pin_direction_init^0,f,c
  2279   001354  EFAE  F009         	goto	u1624
  2280   001358                     u1625:
  2281   001358  90D8               	bcf	status,0,c
  2282   00135A  3653               	rlcf	(??_gpio_pin_direction_init+1)^0,f,c
  2283   00135C                     u1624:
  2284   00135C  2E52               	decfsz	??_gpio_pin_direction_init^0,f,c
  2285   00135E  EFAC  F009         	goto	u1625
  2286   001362  5051               	movf	gpio_pin_direction_init@pin_confg^0,w,c
  2287   001364  6ED9               	movwf	fsr2l,c
  2288   001366  6ADA               	clrf	fsr2h,c
  2289   001368  50DF               	movf	223,w,c
  2290   00136A  0B07               	andlw	7
  2291   00136C  0D02               	mullw	2
  2292   00136E  50F3               	movf	243,w,c
  2293   001370  0F15               	addlw	low _tris_reg
  2294   001372  6ED9               	movwf	fsr2l,c
  2295   001374  6ADA               	clrf	fsr2h,c
  2296   001376  CFDE F054          	movff	postinc2,??_gpio_pin_direction_init+2
  2297   00137A  CFDD F055          	movff	postdec2,??_gpio_pin_direction_init+3
  2298   00137E  C054  FFD9         	movff	??_gpio_pin_direction_init+2,fsr2l
  2299   001382  C055  FFDA         	movff	??_gpio_pin_direction_init+3,fsr2h
  2300   001386  5053               	movf	(??_gpio_pin_direction_init+1)^0,w,c
  2301   001388  12DF               	iorwf	indf2,f,c
  2302                           
  2303                           ;MCAL_Layer/GPIO/hal_gpio.c: 34:                 break;
  2304   00138A  EFE7  F009         	goto	l3172
  2305   00138E                     l3170:
  2306   00138E  5051               	movf	gpio_pin_direction_init@pin_confg^0,w,c
  2307   001390  6ED9               	movwf	fsr2l,c
  2308   001392  6ADA               	clrf	fsr2h,c
  2309   001394  BCDF               	btfsc	indf2,6,c
  2310   001396  EFCF  F009         	goto	u1631
  2311   00139A  EFD2  F009         	goto	u1630
  2312   00139E                     u1631:
  2313   00139E  0E01               	movlw	1
  2314   0013A0  EFD3  F009         	goto	u1640
  2315   0013A4                     u1630:
  2316   0013A4  0E00               	movlw	0
  2317   0013A6                     u1640:
  2318   0013A6  6E52               	movwf	??_gpio_pin_direction_init^0,c
  2319   0013A8  6A53               	clrf	(??_gpio_pin_direction_init+1)^0,c
  2320                           
  2321                           ; Switch on 2 bytes has been partitioned into a top level switch of size 1, and 1 sub-sw
      +                          itches
  2322                           ; Switch size 1, requested type "simple"
  2323                           ; Number of cases is 1, Range of values is 0 to 0
  2324                           ; switch strategies available:
  2325                           ; Name         Instructions Cycles
  2326                           ; simple_byte            4     3 (average)
  2327                           ;	Chosen strategy is simple_byte
  2328   0013AA  5053               	movf	(??_gpio_pin_direction_init+1)^0,w,c
  2329   0013AC  0A00               	xorlw	0	; case 0
  2330   0013AE  B4D8               	btfsc	status,2,c
  2331   0013B0  EFDC  F009         	goto	l4138
  2332   0013B4  EF70  F009         	goto	l3162
  2333   0013B8                     l4138:
  2334                           
  2335                           ; Switch size 1, requested type "simple"
  2336                           ; Number of cases is 2, Range of values is 0 to 1
  2337                           ; switch strategies available:
  2338                           ; Name         Instructions Cycles
  2339                           ; simple_byte            7     4 (average)
  2340                           ;	Chosen strategy is simple_byte
  2341   0013B8  5052               	movf	??_gpio_pin_direction_init^0,w,c
  2342   0013BA  0A00               	xorlw	0	; case 0
  2343   0013BC  B4D8               	btfsc	status,2,c
  2344   0013BE  EF74  F009         	goto	l3164
  2345   0013C2  0A01               	xorlw	1	; case 1
  2346   0013C4  B4D8               	btfsc	status,2,c
  2347   0013C6  EF9F  F009         	goto	l3166
  2348   0013CA  EF70  F009         	goto	l3162
  2349   0013CE                     l3172:
  2350                           
  2351                           ;MCAL_Layer/GPIO/hal_gpio.c: 43:     return ret;
  2352   0013CE  5057               	movf	gpio_pin_direction_init@ret^0,w,c
  2353   0013D0  0012               	return		;funcret
  2354   0013D2                     __end_of_gpio_pin_direction_init:
  2355                           	callstack 0
  2356                           
  2357 ;; *************** function _interrupt_INTx_edge_set *****************
  2358 ;; Defined at:
  2359 ;;		line 367 in file "MCAL_Layer/Interrupt/mcal_external_interrupt.c"
  2360 ;; Parameters:    Size  Location     Type
  2361 ;;  intr_obj        1    6[COMRAM] PTR const struct .
  2362 ;;		 -> int0_obj(6), 
  2363 ;; Auto vars:     Size  Location     Type
  2364 ;;  ret             1    9[COMRAM] unsigned char 
  2365 ;; Return value:  Size  Location     Type
  2366 ;;                  1    wreg      unsigned char 
  2367 ;; Registers used:
  2368 ;;		wreg, fsr2l, fsr2h, status,2, status,0
  2369 ;; Tracked objects:
  2370 ;;		On entry : 0/0
  2371 ;;		On exit  : 0/0
  2372 ;;		Unchanged: 0/0
  2373 ;; Data sizes:     COMRAM   BANK0   BANK1   BANK2   BANK3   BANK4   BANK5   BANK6   BANK7   BANK8   BANK9  BANK10  BANK1
      +1  BANK12  BANK13  BANK14  BANK15
  2374 ;;      Params:         1       0       0       0       0       0       0       0       0       0       0       0       
      +0       0       0       0       0
  2375 ;;      Locals:         1       0       0       0       0       0       0       0       0       0       0       0       
      +0       0       0       0       0
  2376 ;;      Temps:          2       0       0       0       0       0       0       0       0       0       0       0       
      +0       0       0       0       0
  2377 ;;      Totals:         4       0       0       0       0       0       0       0       0       0       0       0       
      +0       0       0       0       0
  2378 ;;Total ram usage:        4 bytes
  2379 ;; Hardware stack levels used: 1
  2380 ;; Hardware stack levels required when called: 4
  2381 ;; This function calls:
  2382 ;;		Nothing
  2383 ;; This function is called by:
  2384 ;;		_interrupt_INTx_Init
  2385 ;; This function uses a non-reentrant model
  2386 ;;
  2387                           
  2388                           	psect	text19
  2389   0013D2                     __ptext19:
  2390                           	callstack 0
  2391   0013D2                     _interrupt_INTx_edge_set:
  2392                           	callstack 24
  2393   0013D2                     
  2394                           ;MCAL_Layer/Interrupt/mcal_external_interrupt.c: 369:     if(intr_obj == ((void*)0) )
  2395   0013D2  5051               	movf	interrupt_INTx_edge_set@intr_obj^0,w,c
  2396   0013D4  A4D8               	btfss	status,2,c
  2397   0013D6  EFEF  F009         	goto	u1761
  2398   0013DA  EFF1  F009         	goto	u1760
  2399   0013DE                     u1761:
  2400   0013DE  EF57  F00A         	goto	l3332
  2401   0013E2                     u1760:
  2402   0013E2                     l3298:
  2403                           
  2404                           ;MCAL_Layer/Interrupt/mcal_external_interrupt.c: 370:     {;MCAL_Layer/Interrupt/mcal_ex
      +                          ternal_interrupt.c: 371:         ret=((Std_RetrunType) 0x00);
  2405   0013E2  0E00               	movlw	0
  2406   0013E4  6E54               	movwf	interrupt_INTx_edge_set@ret^0,c
  2407                           
  2408                           ;MCAL_Layer/Interrupt/mcal_external_interrupt.c: 372:     }
  2409   0013E6  EF75  F00A         	goto	l3334
  2410   0013EA                     l3300:
  2411                           
  2412                           ;MCAL_Layer/Interrupt/mcal_external_interrupt.c: 378:                 if(intr_obj->edge 
      +                          == INTERRUPT_FALLING_EDGE){
  2413   0013EA  5051               	movf	interrupt_INTx_edge_set@intr_obj^0,w,c
  2414   0013EC  6ED9               	movwf	fsr2l,c
  2415   0013EE  6ADA               	clrf	fsr2h,c
  2416   0013F0  0E01               	movlw	1
  2417   0013F2  26D9               	addwf	fsr2l,f,c
  2418   0013F4  50DF               	movf	indf2,w,c
  2419   0013F6  A4D8               	btfss	status,2,c
  2420   0013F8  EF00  F00A         	goto	u1771
  2421   0013FC  EF02  F00A         	goto	u1770
  2422   001400                     u1771:
  2423   001400  EF05  F00A         	goto	l3304
  2424   001404                     u1770:
  2425   001404                     
  2426                           ;MCAL_Layer/Interrupt/mcal_external_interrupt.c: 379:                     (INTCON2bits.I
      +                          NTEDG0=0);
  2427   001404  9CF1               	bcf	241,6,c	;volatile
  2428                           
  2429                           ;MCAL_Layer/Interrupt/mcal_external_interrupt.c: 380:                 }
  2430   001406  EF13  F00A         	goto	l3308
  2431   00140A                     l3304:
  2432   00140A  5051               	movf	interrupt_INTx_edge_set@intr_obj^0,w,c
  2433   00140C  6ED9               	movwf	fsr2l,c
  2434   00140E  6ADA               	clrf	fsr2h,c
  2435   001410  0E01               	movlw	1
  2436   001412  26D9               	addwf	fsr2l,f,c
  2437   001414  04DE               	decf	postinc2,w,c
  2438   001416  A4D8               	btfss	status,2,c
  2439   001418  EF10  F00A         	goto	u1781
  2440   00141C  EF12  F00A         	goto	u1780
  2441   001420                     u1781:
  2442   001420  EF13  F00A         	goto	l3308
  2443   001424                     u1780:
  2444   001424                     
  2445                           ;MCAL_Layer/Interrupt/mcal_external_interrupt.c: 382:                     (INTCON2bits.I
      +                          NTEDG0=1);
  2446   001424  8CF1               	bsf	241,6,c	;volatile
  2447   001426                     l3308:
  2448                           
  2449                           ;MCAL_Layer/Interrupt/mcal_external_interrupt.c: 385:                 ret=((Std_RetrunTy
      +                          pe) 0x01);
  2450   001426  0E01               	movlw	1
  2451   001428  6E54               	movwf	interrupt_INTx_edge_set@ret^0,c
  2452                           
  2453                           ;MCAL_Layer/Interrupt/mcal_external_interrupt.c: 386:                 break;
  2454   00142A  EF75  F00A         	goto	l3334
  2455   00142E                     l3310:
  2456                           
  2457                           ;MCAL_Layer/Interrupt/mcal_external_interrupt.c: 388:                 if(intr_obj->edge 
      +                          == INTERRUPT_FALLING_EDGE){
  2458   00142E  5051               	movf	interrupt_INTx_edge_set@intr_obj^0,w,c
  2459   001430  6ED9               	movwf	fsr2l,c
  2460   001432  6ADA               	clrf	fsr2h,c
  2461   001434  0E01               	movlw	1
  2462   001436  26D9               	addwf	fsr2l,f,c
  2463   001438  50DF               	movf	indf2,w,c
  2464   00143A  A4D8               	btfss	status,2,c
  2465   00143C  EF22  F00A         	goto	u1791
  2466   001440  EF24  F00A         	goto	u1790
  2467   001444                     u1791:
  2468   001444  EF27  F00A         	goto	l3314
  2469   001448                     u1790:
  2470   001448                     
  2471                           ;MCAL_Layer/Interrupt/mcal_external_interrupt.c: 389:                     (INTCON2bits.I
      +                          NTEDG1=0);
  2472   001448  9AF1               	bcf	241,5,c	;volatile
  2473                           
  2474                           ;MCAL_Layer/Interrupt/mcal_external_interrupt.c: 390:                 }
  2475   00144A  EF13  F00A         	goto	l3308
  2476   00144E                     l3314:
  2477   00144E  5051               	movf	interrupt_INTx_edge_set@intr_obj^0,w,c
  2478   001450  6ED9               	movwf	fsr2l,c
  2479   001452  6ADA               	clrf	fsr2h,c
  2480   001454  0E01               	movlw	1
  2481   001456  26D9               	addwf	fsr2l,f,c
  2482   001458  04DE               	decf	postinc2,w,c
  2483   00145A  A4D8               	btfss	status,2,c
  2484   00145C  EF32  F00A         	goto	u1801
  2485   001460  EF34  F00A         	goto	u1800
  2486   001464                     u1801:
  2487   001464  EF13  F00A         	goto	l3308
  2488   001468                     u1800:
  2489   001468                     
  2490                           ;MCAL_Layer/Interrupt/mcal_external_interrupt.c: 392:                     (INTCON2bits.I
      +                          NTEDG1=1);
  2491   001468  8AF1               	bsf	241,5,c	;volatile
  2492                           
  2493                           ;MCAL_Layer/Interrupt/mcal_external_interrupt.c: 393:                 }
  2494   00146A  EF13  F00A         	goto	l3308
  2495   00146E                     l3320:
  2496                           
  2497                           ;MCAL_Layer/Interrupt/mcal_external_interrupt.c: 398:                 if(intr_obj->edge 
      +                          == INTERRUPT_FALLING_EDGE){
  2498   00146E  5051               	movf	interrupt_INTx_edge_set@intr_obj^0,w,c
  2499   001470  6ED9               	movwf	fsr2l,c
  2500   001472  6ADA               	clrf	fsr2h,c
  2501   001474  0E01               	movlw	1
  2502   001476  26D9               	addwf	fsr2l,f,c
  2503   001478  50DF               	movf	indf2,w,c
  2504   00147A  A4D8               	btfss	status,2,c
  2505   00147C  EF42  F00A         	goto	u1811
  2506   001480  EF44  F00A         	goto	u1810
  2507   001484                     u1811:
  2508   001484  EF47  F00A         	goto	l3324
  2509   001488                     u1810:
  2510   001488                     
  2511                           ;MCAL_Layer/Interrupt/mcal_external_interrupt.c: 399:                     (INTCON2bits.I
      +                          NTEDG2=0);
  2512   001488  98F1               	bcf	241,4,c	;volatile
  2513                           
  2514                           ;MCAL_Layer/Interrupt/mcal_external_interrupt.c: 400:                 }
  2515   00148A  EF13  F00A         	goto	l3308
  2516   00148E                     l3324:
  2517   00148E  5051               	movf	interrupt_INTx_edge_set@intr_obj^0,w,c
  2518   001490  6ED9               	movwf	fsr2l,c
  2519   001492  6ADA               	clrf	fsr2h,c
  2520   001494  0E01               	movlw	1
  2521   001496  26D9               	addwf	fsr2l,f,c
  2522   001498  04DE               	decf	postinc2,w,c
  2523   00149A  A4D8               	btfss	status,2,c
  2524   00149C  EF52  F00A         	goto	u1821
  2525   0014A0  EF54  F00A         	goto	u1820
  2526   0014A4                     u1821:
  2527   0014A4  EF13  F00A         	goto	l3308
  2528   0014A8                     u1820:
  2529   0014A8                     
  2530                           ;MCAL_Layer/Interrupt/mcal_external_interrupt.c: 402:                     (INTCON2bits.I
      +                          NTEDG2=1);
  2531   0014A8  88F1               	bsf	241,4,c	;volatile
  2532                           
  2533                           ;MCAL_Layer/Interrupt/mcal_external_interrupt.c: 403:                 }
  2534   0014AA  EF13  F00A         	goto	l3308
  2535   0014AE                     l3332:
  2536   0014AE  5051               	movf	interrupt_INTx_edge_set@intr_obj^0,w,c
  2537   0014B0  6ED9               	movwf	fsr2l,c
  2538   0014B2  6ADA               	clrf	fsr2h,c
  2539   0014B4  0E02               	movlw	2
  2540   0014B6  26D9               	addwf	fsr2l,f,c
  2541   0014B8  50DF               	movf	indf2,w,c
  2542   0014BA  6E52               	movwf	??_interrupt_INTx_edge_set^0,c
  2543   0014BC  6A53               	clrf	(??_interrupt_INTx_edge_set+1)^0,c
  2544                           
  2545                           ; Switch on 2 bytes has been partitioned into a top level switch of size 1, and 1 sub-sw
      +                          itches
  2546                           ; Switch size 1, requested type "simple"
  2547                           ; Number of cases is 1, Range of values is 0 to 0
  2548                           ; switch strategies available:
  2549                           ; Name         Instructions Cycles
  2550                           ; simple_byte            4     3 (average)
  2551                           ;	Chosen strategy is simple_byte
  2552   0014BE  5053               	movf	(??_interrupt_INTx_edge_set+1)^0,w,c
  2553   0014C0  0A00               	xorlw	0	; case 0
  2554   0014C2  B4D8               	btfsc	status,2,c
  2555   0014C4  EF66  F00A         	goto	l4140
  2556   0014C8  EFF1  F009         	goto	l3298
  2557   0014CC                     l4140:
  2558                           
  2559                           ; Switch size 1, requested type "simple"
  2560                           ; Number of cases is 3, Range of values is 0 to 2
  2561                           ; switch strategies available:
  2562                           ; Name         Instructions Cycles
  2563                           ; simple_byte           10     6 (average)
  2564                           ;	Chosen strategy is simple_byte
  2565   0014CC  5052               	movf	??_interrupt_INTx_edge_set^0,w,c
  2566   0014CE  0A00               	xorlw	0	; case 0
  2567   0014D0  B4D8               	btfsc	status,2,c
  2568   0014D2  EFF5  F009         	goto	l3300
  2569   0014D6  0A01               	xorlw	1	; case 1
  2570   0014D8  B4D8               	btfsc	status,2,c
  2571   0014DA  EF17  F00A         	goto	l3310
  2572   0014DE  0A03               	xorlw	3	; case 2
  2573   0014E0  B4D8               	btfsc	status,2,c
  2574   0014E2  EF37  F00A         	goto	l3320
  2575   0014E6  EFF1  F009         	goto	l3298
  2576   0014EA                     l3334:
  2577                           
  2578                           ;MCAL_Layer/Interrupt/mcal_external_interrupt.c: 415:     return ret;
  2579   0014EA  5054               	movf	interrupt_INTx_edge_set@ret^0,w,c
  2580   0014EC  0012               	return		;funcret
  2581   0014EE                     __end_of_interrupt_INTx_edge_set:
  2582                           	callstack 0
  2583                           
  2584 ;; *************** function _interrupt_INTx_clear_flag *****************
  2585 ;; Defined at:
  2586 ;;		line 424 in file "MCAL_Layer/Interrupt/mcal_external_interrupt.c"
  2587 ;; Parameters:    Size  Location     Type
  2588 ;;  intr_obj        1    6[COMRAM] PTR const struct .
  2589 ;;		 -> int0_obj(6), 
  2590 ;; Auto vars:     Size  Location     Type
  2591 ;;  ret             1    9[COMRAM] unsigned char 
  2592 ;; Return value:  Size  Location     Type
  2593 ;;                  1    wreg      unsigned char 
  2594 ;; Registers used:
  2595 ;;		wreg, fsr2l, fsr2h, status,2, status,0
  2596 ;; Tracked objects:
  2597 ;;		On entry : 0/0
  2598 ;;		On exit  : 0/0
  2599 ;;		Unchanged: 0/0
  2600 ;; Data sizes:     COMRAM   BANK0   BANK1   BANK2   BANK3   BANK4   BANK5   BANK6   BANK7   BANK8   BANK9  BANK10  BANK1
      +1  BANK12  BANK13  BANK14  BANK15
  2601 ;;      Params:         1       0       0       0       0       0       0       0       0       0       0       0       
      +0       0       0       0       0
  2602 ;;      Locals:         1       0       0       0       0       0       0       0       0       0       0       0       
      +0       0       0       0       0
  2603 ;;      Temps:          2       0       0       0       0       0       0       0       0       0       0       0       
      +0       0       0       0       0
  2604 ;;      Totals:         4       0       0       0       0       0       0       0       0       0       0       0       
      +0       0       0       0       0
  2605 ;;Total ram usage:        4 bytes
  2606 ;; Hardware stack levels used: 1
  2607 ;; Hardware stack levels required when called: 4
  2608 ;; This function calls:
  2609 ;;		Nothing
  2610 ;; This function is called by:
  2611 ;;		_interrupt_INTx_Init
  2612 ;; This function uses a non-reentrant model
  2613 ;;
  2614                           
  2615                           	psect	text20
  2616   001820                     __ptext20:
  2617                           	callstack 0
  2618   001820                     _interrupt_INTx_clear_flag:
  2619                           	callstack 24
  2620   001820                     
  2621                           ;MCAL_Layer/Interrupt/mcal_external_interrupt.c: 426:     if(intr_obj == ((void*)0) )
  2622   001820  5051               	movf	interrupt_INTx_clear_flag@intr_obj^0,w,c
  2623   001822  A4D8               	btfss	status,2,c
  2624   001824  EF16  F00C         	goto	u1751
  2625   001828  EF18  F00C         	goto	u1750
  2626   00182C                     u1751:
  2627   00182C  EF27  F00C         	goto	l3286
  2628   001830                     u1750:
  2629   001830                     l3276:
  2630                           
  2631                           ;MCAL_Layer/Interrupt/mcal_external_interrupt.c: 427:     {;MCAL_Layer/Interrupt/mcal_ex
      +                          ternal_interrupt.c: 428:         ret=((Std_RetrunType) 0x00);
  2632   001830  0E00               	movlw	0
  2633   001832  6E54               	movwf	interrupt_INTx_clear_flag@ret^0,c
  2634                           
  2635                           ;MCAL_Layer/Interrupt/mcal_external_interrupt.c: 429:     }
  2636   001834  EF45  F00C         	goto	l3288
  2637   001838                     l859:
  2638                           
  2639                           ;MCAL_Layer/Interrupt/mcal_external_interrupt.c: 435:                 (INTCONbits.INT0IF
      +                          =0);
  2640   001838  92F2               	bcf	242,1,c	;volatile
  2641   00183A                     l3278:
  2642                           
  2643                           ;MCAL_Layer/Interrupt/mcal_external_interrupt.c: 436:                 ret=((Std_RetrunTy
      +                          pe) 0x01);
  2644   00183A  0E01               	movlw	1
  2645   00183C  6E54               	movwf	interrupt_INTx_clear_flag@ret^0,c
  2646                           
  2647                           ;MCAL_Layer/Interrupt/mcal_external_interrupt.c: 437:                 break;
  2648   00183E  EF45  F00C         	goto	l3288
  2649   001842                     l861:
  2650                           
  2651                           ;MCAL_Layer/Interrupt/mcal_external_interrupt.c: 439:                 (INTCON3bits.INT1I
      +                          F=0);
  2652   001842  90F0               	bcf	240,0,c	;volatile
  2653   001844  EF1D  F00C         	goto	l3278
  2654   001848                     l862:
  2655                           
  2656                           ;MCAL_Layer/Interrupt/mcal_external_interrupt.c: 443:                 (INTCON3bits.INT2I
      +                          F=0);
  2657   001848  92F0               	bcf	240,1,c	;volatile
  2658   00184A  EF1D  F00C         	goto	l3278
  2659   00184E                     l3286:
  2660   00184E  5051               	movf	interrupt_INTx_clear_flag@intr_obj^0,w,c
  2661   001850  6ED9               	movwf	fsr2l,c
  2662   001852  6ADA               	clrf	fsr2h,c
  2663   001854  0E02               	movlw	2
  2664   001856  26D9               	addwf	fsr2l,f,c
  2665   001858  50DF               	movf	indf2,w,c
  2666   00185A  6E52               	movwf	??_interrupt_INTx_clear_flag^0,c
  2667   00185C  6A53               	clrf	(??_interrupt_INTx_clear_flag+1)^0,c
  2668                           
  2669                           ; Switch on 2 bytes has been partitioned into a top level switch of size 1, and 1 sub-sw
      +                          itches
  2670                           ; Switch size 1, requested type "simple"
  2671                           ; Number of cases is 1, Range of values is 0 to 0
  2672                           ; switch strategies available:
  2673                           ; Name         Instructions Cycles
  2674                           ; simple_byte            4     3 (average)
  2675                           ;	Chosen strategy is simple_byte
  2676   00185E  5053               	movf	(??_interrupt_INTx_clear_flag+1)^0,w,c
  2677   001860  0A00               	xorlw	0	; case 0
  2678   001862  B4D8               	btfsc	status,2,c
  2679   001864  EF36  F00C         	goto	l4142
  2680   001868  EF18  F00C         	goto	l3276
  2681   00186C                     l4142:
  2682                           
  2683                           ; Switch size 1, requested type "simple"
  2684                           ; Number of cases is 3, Range of values is 0 to 2
  2685                           ; switch strategies available:
  2686                           ; Name         Instructions Cycles
  2687                           ; simple_byte           10     6 (average)
  2688                           ;	Chosen strategy is simple_byte
  2689   00186C  5052               	movf	??_interrupt_INTx_clear_flag^0,w,c
  2690   00186E  0A00               	xorlw	0	; case 0
  2691   001870  B4D8               	btfsc	status,2,c
  2692   001872  EF1C  F00C         	goto	l859
  2693   001876  0A01               	xorlw	1	; case 1
  2694   001878  B4D8               	btfsc	status,2,c
  2695   00187A  EF21  F00C         	goto	l861
  2696   00187E  0A03               	xorlw	3	; case 2
  2697   001880  B4D8               	btfsc	status,2,c
  2698   001882  EF24  F00C         	goto	l862
  2699   001886  EF18  F00C         	goto	l3276
  2700   00188A                     l3288:
  2701                           
  2702                           ;MCAL_Layer/Interrupt/mcal_external_interrupt.c: 454:     return ret;
  2703   00188A  5054               	movf	interrupt_INTx_clear_flag@ret^0,w,c
  2704   00188C  0012               	return		;funcret
  2705   00188E                     __end_of_interrupt_INTx_clear_flag:
  2706                           	callstack 0
  2707                           
  2708 ;; *************** function _interrupt_INTx_Enable *****************
  2709 ;; Defined at:
  2710 ;;		line 221 in file "MCAL_Layer/Interrupt/mcal_external_interrupt.c"
  2711 ;; Parameters:    Size  Location     Type
  2712 ;;  intr_obj        1    6[COMRAM] PTR const struct .
  2713 ;;		 -> int0_obj(6), 
  2714 ;; Auto vars:     Size  Location     Type
  2715 ;;  ret             1    9[COMRAM] unsigned char 
  2716 ;; Return value:  Size  Location     Type
  2717 ;;                  1    wreg      unsigned char 
  2718 ;; Registers used:
  2719 ;;		wreg, fsr2l, fsr2h, status,2, status,0
  2720 ;; Tracked objects:
  2721 ;;		On entry : 0/0
  2722 ;;		On exit  : 0/0
  2723 ;;		Unchanged: 0/0
  2724 ;; Data sizes:     COMRAM   BANK0   BANK1   BANK2   BANK3   BANK4   BANK5   BANK6   BANK7   BANK8   BANK9  BANK10  BANK1
      +1  BANK12  BANK13  BANK14  BANK15
  2725 ;;      Params:         1       0       0       0       0       0       0       0       0       0       0       0       
      +0       0       0       0       0
  2726 ;;      Locals:         1       0       0       0       0       0       0       0       0       0       0       0       
      +0       0       0       0       0
  2727 ;;      Temps:          2       0       0       0       0       0       0       0       0       0       0       0       
      +0       0       0       0       0
  2728 ;;      Totals:         4       0       0       0       0       0       0       0       0       0       0       0       
      +0       0       0       0       0
  2729 ;;Total ram usage:        4 bytes
  2730 ;; Hardware stack levels used: 1
  2731 ;; Hardware stack levels required when called: 4
  2732 ;; This function calls:
  2733 ;;		Nothing
  2734 ;; This function is called by:
  2735 ;;		_interrupt_INTx_Init
  2736 ;; This function uses a non-reentrant model
  2737 ;;
  2738                           
  2739                           	psect	text21
  2740   001738                     __ptext21:
  2741                           	callstack 0
  2742   001738                     _interrupt_INTx_Enable:
  2743                           	callstack 24
  2744   001738                     
  2745                           ;MCAL_Layer/Interrupt/mcal_external_interrupt.c: 223:     if(intr_obj == ((void*)0) )
  2746   001738  5051               	movf	interrupt_INTx_Enable@intr_obj^0,w,c
  2747   00173A  A4D8               	btfss	status,2,c
  2748   00173C  EFA2  F00B         	goto	u1851
  2749   001740  EFA4  F00B         	goto	u1850
  2750   001744                     u1851:
  2751   001744  EFB9  F00B         	goto	l3392
  2752   001748                     u1850:
  2753   001748                     l3382:
  2754                           
  2755                           ;MCAL_Layer/Interrupt/mcal_external_interrupt.c: 224:     {;MCAL_Layer/Interrupt/mcal_ex
      +                          ternal_interrupt.c: 225:         ret=((Std_RetrunType) 0x00);
  2756   001748  0E00               	movlw	0
  2757   00174A  6E54               	movwf	interrupt_INTx_Enable@ret^0,c
  2758                           
  2759                           ;MCAL_Layer/Interrupt/mcal_external_interrupt.c: 226:     }
  2760   00174C  EFD7  F00B         	goto	l3394
  2761   001750                     l814:
  2762                           
  2763                           ;MCAL_Layer/Interrupt/mcal_external_interrupt.c: 232:                 (INTCONbits.INT0IE
      +                          =1);
  2764   001750  88F2               	bsf	242,4,c	;volatile
  2765                           
  2766                           ;MCAL_Layer/Interrupt/mcal_external_interrupt.c: 236:                 (INTCONbits.GIE=1)
      +                          ;
  2767   001752  8EF2               	bsf	242,7,c	;volatile
  2768                           
  2769                           ;MCAL_Layer/Interrupt/mcal_external_interrupt.c: 237:                 (INTCONbits.PEIE=1
      +                          );
  2770   001754  8CF2               	bsf	242,6,c	;volatile
  2771   001756                     l3384:
  2772                           
  2773                           ;MCAL_Layer/Interrupt/mcal_external_interrupt.c: 239:                 ret=((Std_RetrunTy
      +                          pe) 0x01);
  2774   001756  0E01               	movlw	1
  2775   001758  6E54               	movwf	interrupt_INTx_Enable@ret^0,c
  2776                           
  2777                           ;MCAL_Layer/Interrupt/mcal_external_interrupt.c: 240:                 break;
  2778   00175A  EFD7  F00B         	goto	l3394
  2779   00175E                     l816:
  2780                           
  2781                           ;MCAL_Layer/Interrupt/mcal_external_interrupt.c: 242:                 (INTCON3bits.INT1I
      +                          E=1);
  2782   00175E  86F0               	bsf	240,3,c	;volatile
  2783                           
  2784                           ;MCAL_Layer/Interrupt/mcal_external_interrupt.c: 252:                 (INTCONbits.GIE=1)
      +                          ;
  2785   001760  8EF2               	bsf	242,7,c	;volatile
  2786                           
  2787                           ;MCAL_Layer/Interrupt/mcal_external_interrupt.c: 253:                 (INTCONbits.PEIE=1
      +                          );
  2788   001762  8CF2               	bsf	242,6,c	;volatile
  2789   001764  EFAB  F00B         	goto	l3384
  2790   001768                     l817:
  2791                           
  2792                           ;MCAL_Layer/Interrupt/mcal_external_interrupt.c: 259:                 (INTCON3bits.INT2I
      +                          E=1);
  2793   001768  88F0               	bsf	240,4,c	;volatile
  2794                           
  2795                           ;MCAL_Layer/Interrupt/mcal_external_interrupt.c: 269:                 (INTCONbits.GIE=1)
      +                          ;
  2796   00176A  8EF2               	bsf	242,7,c	;volatile
  2797                           
  2798                           ;MCAL_Layer/Interrupt/mcal_external_interrupt.c: 270:                 (INTCONbits.PEIE=1
      +                          );
  2799   00176C  8CF2               	bsf	242,6,c	;volatile
  2800   00176E  EFAB  F00B         	goto	l3384
  2801   001772                     l3392:
  2802   001772  5051               	movf	interrupt_INTx_Enable@intr_obj^0,w,c
  2803   001774  6ED9               	movwf	fsr2l,c
  2804   001776  6ADA               	clrf	fsr2h,c
  2805   001778  0E02               	movlw	2
  2806   00177A  26D9               	addwf	fsr2l,f,c
  2807   00177C  50DF               	movf	indf2,w,c
  2808   00177E  6E52               	movwf	??_interrupt_INTx_Enable^0,c
  2809   001780  6A53               	clrf	(??_interrupt_INTx_Enable+1)^0,c
  2810                           
  2811                           ; Switch on 2 bytes has been partitioned into a top level switch of size 1, and 1 sub-sw
      +                          itches
  2812                           ; Switch size 1, requested type "simple"
  2813                           ; Number of cases is 1, Range of values is 0 to 0
  2814                           ; switch strategies available:
  2815                           ; Name         Instructions Cycles
  2816                           ; simple_byte            4     3 (average)
  2817                           ;	Chosen strategy is simple_byte
  2818   001782  5053               	movf	(??_interrupt_INTx_Enable+1)^0,w,c
  2819   001784  0A00               	xorlw	0	; case 0
  2820   001786  B4D8               	btfsc	status,2,c
  2821   001788  EFC8  F00B         	goto	l4144
  2822   00178C  EFA4  F00B         	goto	l3382
  2823   001790                     l4144:
  2824                           
  2825                           ; Switch size 1, requested type "simple"
  2826                           ; Number of cases is 3, Range of values is 0 to 2
  2827                           ; switch strategies available:
  2828                           ; Name         Instructions Cycles
  2829                           ; simple_byte           10     6 (average)
  2830                           ;	Chosen strategy is simple_byte
  2831   001790  5052               	movf	??_interrupt_INTx_Enable^0,w,c
  2832   001792  0A00               	xorlw	0	; case 0
  2833   001794  B4D8               	btfsc	status,2,c
  2834   001796  EFA8  F00B         	goto	l814
  2835   00179A  0A01               	xorlw	1	; case 1
  2836   00179C  B4D8               	btfsc	status,2,c
  2837   00179E  EFAF  F00B         	goto	l816
  2838   0017A2  0A03               	xorlw	3	; case 2
  2839   0017A4  B4D8               	btfsc	status,2,c
  2840   0017A6  EFB4  F00B         	goto	l817
  2841   0017AA  EFA4  F00B         	goto	l3382
  2842   0017AE                     l3394:
  2843                           
  2844                           ;MCAL_Layer/Interrupt/mcal_external_interrupt.c: 283:     return ret;
  2845   0017AE  5054               	movf	interrupt_INTx_Enable@ret^0,w,c
  2846   0017B0  0012               	return		;funcret
  2847   0017B2                     __end_of_interrupt_INTx_Enable:
  2848                           	callstack 0
  2849                           
  2850 ;; *************** function _interrupt_INTx_Disable *****************
  2851 ;; Defined at:
  2852 ;;		line 292 in file "MCAL_Layer/Interrupt/mcal_external_interrupt.c"
  2853 ;; Parameters:    Size  Location     Type
  2854 ;;  intr_obj        1    6[COMRAM] PTR const struct .
  2855 ;;		 -> int0_obj(6), 
  2856 ;; Auto vars:     Size  Location     Type
  2857 ;;  ret             1    9[COMRAM] unsigned char 
  2858 ;; Return value:  Size  Location     Type
  2859 ;;                  1    wreg      unsigned char 
  2860 ;; Registers used:
  2861 ;;		wreg, fsr2l, fsr2h, status,2, status,0
  2862 ;; Tracked objects:
  2863 ;;		On entry : 0/0
  2864 ;;		On exit  : 0/0
  2865 ;;		Unchanged: 0/0
  2866 ;; Data sizes:     COMRAM   BANK0   BANK1   BANK2   BANK3   BANK4   BANK5   BANK6   BANK7   BANK8   BANK9  BANK10  BANK1
      +1  BANK12  BANK13  BANK14  BANK15
  2867 ;;      Params:         1       0       0       0       0       0       0       0       0       0       0       0       
      +0       0       0       0       0
  2868 ;;      Locals:         1       0       0       0       0       0       0       0       0       0       0       0       
      +0       0       0       0       0
  2869 ;;      Temps:          2       0       0       0       0       0       0       0       0       0       0       0       
      +0       0       0       0       0
  2870 ;;      Totals:         4       0       0       0       0       0       0       0       0       0       0       0       
      +0       0       0       0       0
  2871 ;;Total ram usage:        4 bytes
  2872 ;; Hardware stack levels used: 1
  2873 ;; Hardware stack levels required when called: 4
  2874 ;; This function calls:
  2875 ;;		Nothing
  2876 ;; This function is called by:
  2877 ;;		_interrupt_INTx_Init
  2878 ;;		_interrupt_INTx_DeInit
  2879 ;; This function uses a non-reentrant model
  2880 ;;
  2881                           
  2882                           	psect	text22
  2883   00188E                     __ptext22:
  2884                           	callstack 0
  2885   00188E                     _interrupt_INTx_Disable:
  2886                           	callstack 24
  2887   00188E                     
  2888                           ;MCAL_Layer/Interrupt/mcal_external_interrupt.c: 294:     if(intr_obj == ((void*)0) )
  2889   00188E  5051               	movf	interrupt_INTx_Disable@intr_obj^0,w,c
  2890   001890  A4D8               	btfss	status,2,c
  2891   001892  EF4D  F00C         	goto	u1741
  2892   001896  EF4F  F00C         	goto	u1740
  2893   00189A                     u1741:
  2894   00189A  EF5E  F00C         	goto	l3264
  2895   00189E                     u1740:
  2896   00189E                     l3254:
  2897                           
  2898                           ;MCAL_Layer/Interrupt/mcal_external_interrupt.c: 295:     {;MCAL_Layer/Interrupt/mcal_ex
      +                          ternal_interrupt.c: 296:         ret=((Std_RetrunType) 0x00);
  2899   00189E  0E00               	movlw	0
  2900   0018A0  6E54               	movwf	interrupt_INTx_Disable@ret^0,c
  2901                           
  2902                           ;MCAL_Layer/Interrupt/mcal_external_interrupt.c: 297:     }
  2903   0018A2  EF7C  F00C         	goto	l3266
  2904   0018A6                     l825:
  2905                           
  2906                           ;MCAL_Layer/Interrupt/mcal_external_interrupt.c: 303:                 (INTCONbits.INT0IE
      +                          =0);
  2907   0018A6  98F2               	bcf	242,4,c	;volatile
  2908   0018A8                     l3256:
  2909                           
  2910                           ;MCAL_Layer/Interrupt/mcal_external_interrupt.c: 304:                 ret=((Std_RetrunTy
      +                          pe) 0x01);
  2911   0018A8  0E01               	movlw	1
  2912   0018AA  6E54               	movwf	interrupt_INTx_Disable@ret^0,c
  2913                           
  2914                           ;MCAL_Layer/Interrupt/mcal_external_interrupt.c: 305:                 break;
  2915   0018AC  EF7C  F00C         	goto	l3266
  2916   0018B0                     l827:
  2917                           
  2918                           ;MCAL_Layer/Interrupt/mcal_external_interrupt.c: 307:                 (INTCON3bits.INT1I
      +                          E=0);
  2919   0018B0  96F0               	bcf	240,3,c	;volatile
  2920   0018B2  EF54  F00C         	goto	l3256
  2921   0018B6                     l828:
  2922                           
  2923                           ;MCAL_Layer/Interrupt/mcal_external_interrupt.c: 311:                 (INTCON3bits.INT2I
      +                          E=0);
  2924   0018B6  98F0               	bcf	240,4,c	;volatile
  2925   0018B8  EF54  F00C         	goto	l3256
  2926   0018BC                     l3264:
  2927   0018BC  5051               	movf	interrupt_INTx_Disable@intr_obj^0,w,c
  2928   0018BE  6ED9               	movwf	fsr2l,c
  2929   0018C0  6ADA               	clrf	fsr2h,c
  2930   0018C2  0E02               	movlw	2
  2931   0018C4  26D9               	addwf	fsr2l,f,c
  2932   0018C6  50DF               	movf	indf2,w,c
  2933   0018C8  6E52               	movwf	??_interrupt_INTx_Disable^0,c
  2934   0018CA  6A53               	clrf	(??_interrupt_INTx_Disable+1)^0,c
  2935                           
  2936                           ; Switch on 2 bytes has been partitioned into a top level switch of size 1, and 1 sub-sw
      +                          itches
  2937                           ; Switch size 1, requested type "simple"
  2938                           ; Number of cases is 1, Range of values is 0 to 0
  2939                           ; switch strategies available:
  2940                           ; Name         Instructions Cycles
  2941                           ; simple_byte            4     3 (average)
  2942                           ;	Chosen strategy is simple_byte
  2943   0018CC  5053               	movf	(??_interrupt_INTx_Disable+1)^0,w,c
  2944   0018CE  0A00               	xorlw	0	; case 0
  2945   0018D0  B4D8               	btfsc	status,2,c
  2946   0018D2  EF6D  F00C         	goto	l4146
  2947   0018D6  EF4F  F00C         	goto	l3254
  2948   0018DA                     l4146:
  2949                           
  2950                           ; Switch size 1, requested type "simple"
  2951                           ; Number of cases is 3, Range of values is 0 to 2
  2952                           ; switch strategies available:
  2953                           ; Name         Instructions Cycles
  2954                           ; simple_byte           10     6 (average)
  2955                           ;	Chosen strategy is simple_byte
  2956   0018DA  5052               	movf	??_interrupt_INTx_Disable^0,w,c
  2957   0018DC  0A00               	xorlw	0	; case 0
  2958   0018DE  B4D8               	btfsc	status,2,c
  2959   0018E0  EF53  F00C         	goto	l825
  2960   0018E4  0A01               	xorlw	1	; case 1
  2961   0018E6  B4D8               	btfsc	status,2,c
  2962   0018E8  EF58  F00C         	goto	l827
  2963   0018EC  0A03               	xorlw	3	; case 2
  2964   0018EE  B4D8               	btfsc	status,2,c
  2965   0018F0  EF5B  F00C         	goto	l828
  2966   0018F4  EF4F  F00C         	goto	l3254
  2967   0018F8                     l3266:
  2968                           
  2969                           ;MCAL_Layer/Interrupt/mcal_external_interrupt.c: 322:     return ret;
  2970   0018F8  5054               	movf	interrupt_INTx_Disable@ret^0,w,c
  2971   0018FA  0012               	return		;funcret
  2972   0018FC                     __end_of_interrupt_INTx_Disable:
  2973                           	callstack 0
  2974                           
  2975 ;; *************** function _General_Interrupt_Manager *****************
  2976 ;; Defined at:
  2977 ;;		line 35 in file "MCAL_Layer/Interrupt/mcal_interrupt_manager.c"
  2978 ;; Parameters:    Size  Location     Type
  2979 ;;		None
  2980 ;; Auto vars:     Size  Location     Type
  2981 ;;		None
  2982 ;; Return value:  Size  Location     Type
  2983 ;;                  1    wreg      void 
  2984 ;; Registers used:
  2985 ;;		wreg, status,2, status,0, pcl, pclath, pclatu, tosl, cstack
  2986 ;; Tracked objects:
  2987 ;;		On entry : 0/0
  2988 ;;		On exit  : 0/0
  2989 ;;		Unchanged: 0/0
  2990 ;; Data sizes:     COMRAM   BANK0   BANK1   BANK2   BANK3   BANK4   BANK5   BANK6   BANK7   BANK8   BANK9  BANK10  BANK1
      +1  BANK12  BANK13  BANK14  BANK15
  2991 ;;      Params:         0       0       0       0       0       0       0       0       0       0       0       0       
      +0       0       0       0       0
  2992 ;;      Locals:         0       0       0       0       0       0       0       0       0       0       0       0       
      +0       0       0       0       0
  2993 ;;      Temps:          2       0       0       0       0       0       0       0       0       0       0       0       
      +0       0       0       0       0
  2994 ;;      Totals:         2       0       0       0       0       0       0       0       0       0       0       0       
      +0       0       0       0       0
  2995 ;;Total ram usage:        2 bytes
  2996 ;; Hardware stack levels used: 1
  2997 ;; Hardware stack levels required when called: 3
  2998 ;; This function calls:
  2999 ;;		_INT0_ISR
  3000 ;;		_INT1_ISR
  3001 ;;		_INT2_ISR
  3002 ;;		_RB4_ISR
  3003 ;;		_RB5_ISR
  3004 ;;		_RB6_ISR
  3005 ;;		_RB7_ISR
  3006 ;; This function is called by:
  3007 ;;		Interrupt level 2
  3008 ;; This function uses a non-reentrant model
  3009 ;;
  3010                           
  3011                           	psect	intcode
  3012   000008                     __pintcode:
  3013                           	callstack 0
  3014   000008                     _General_Interrupt_Manager:
  3015                           	callstack 23
  3016                           
  3017                           ;incstack = 0
  3018   000008  8260               	bsf	int$flags,1,c	;set compiler interrupt flag (level 2)
  3019   00000A  ED0B  F008         	call	int_func,f	;refresh shadow registers
  3020                           
  3021                           	psect	intcode_body
  3022   001016                     __pintcode_body:
  3023                           	callstack 23
  3024   001016                     int_func:
  3025                           	callstack 23
  3026   001016  0006               	pop		; remove dummy address from shadow register refresh
  3027   001018  CFFA F04F          	movff	pclath,??_General_Interrupt_Manager
  3028   00101C  CFFB F050          	movff	pclatu,??_General_Interrupt_Manager+1
  3029   001020                     
  3030                           ;MCAL_Layer/Interrupt/mcal_interrupt_manager.c: 39:     if((1==INTCONbits.INT0IE) && (1=
      +                          =INTCONbits.INT0IF)){
  3031   001020  A8F2               	btfss	242,4,c	;volatile
  3032   001022  EF15  F008         	goto	i2u244_41
  3033   001026  EF17  F008         	goto	i2u244_40
  3034   00102A                     i2u244_41:
  3035   00102A  EF20  F008         	goto	i2l1020
  3036   00102E                     i2u244_40:
  3037   00102E  A2F2               	btfss	242,1,c	;volatile
  3038   001030  EF1C  F008         	goto	i2u245_41
  3039   001034  EF1E  F008         	goto	i2u245_40
  3040   001038                     i2u245_41:
  3041   001038  EF20  F008         	goto	i2l1020
  3042   00103C                     i2u245_40:
  3043   00103C                     
  3044                           ;MCAL_Layer/Interrupt/mcal_interrupt_manager.c: 40:         INT0_ISR();
  3045   00103C  ECF6  F00D         	call	_INT0_ISR	;wreg free
  3046   001040                     i2l1020:
  3047                           
  3048                           ;MCAL_Layer/Interrupt/mcal_interrupt_manager.c: 43:     if((1==INTCON3bits.INT1IE) && (1
      +                          ==INTCON3bits.INT1IF)){
  3049   001040  A6F0               	btfss	240,3,c	;volatile
  3050   001042  EF25  F008         	goto	i2u246_41
  3051   001046  EF27  F008         	goto	i2u246_40
  3052   00104A                     i2u246_41:
  3053   00104A  EF30  F008         	goto	i2l1022
  3054   00104E                     i2u246_40:
  3055   00104E  A0F0               	btfss	240,0,c	;volatile
  3056   001050  EF2C  F008         	goto	i2u247_41
  3057   001054  EF2E  F008         	goto	i2u247_40
  3058   001058                     i2u247_41:
  3059   001058  EF30  F008         	goto	i2l1022
  3060   00105C                     i2u247_40:
  3061   00105C                     
  3062                           ;MCAL_Layer/Interrupt/mcal_interrupt_manager.c: 44:         INT1_ISR();
  3063   00105C  ECDF  F00D         	call	_INT1_ISR	;wreg free
  3064   001060                     i2l1022:
  3065                           
  3066                           ;MCAL_Layer/Interrupt/mcal_interrupt_manager.c: 47:     if((1==INTCON3bits.INT2IE) && (1
      +                          ==INTCON3bits.INT2IF)){
  3067   001060  A8F0               	btfss	240,4,c	;volatile
  3068   001062  EF35  F008         	goto	i2u248_41
  3069   001066  EF37  F008         	goto	i2u248_40
  3070   00106A                     i2u248_41:
  3071   00106A  EF40  F008         	goto	i2l1024
  3072   00106E                     i2u248_40:
  3073   00106E  A2F0               	btfss	240,1,c	;volatile
  3074   001070  EF3C  F008         	goto	i2u249_41
  3075   001074  EF3E  F008         	goto	i2u249_40
  3076   001078                     i2u249_41:
  3077   001078  EF40  F008         	goto	i2l1024
  3078   00107C                     i2u249_40:
  3079   00107C                     
  3080                           ;MCAL_Layer/Interrupt/mcal_interrupt_manager.c: 48:         INT2_ISR();
  3081   00107C  ECC8  F00D         	call	_INT2_ISR	;wreg free
  3082   001080                     i2l1024:
  3083                           
  3084                           ;MCAL_Layer/Interrupt/mcal_interrupt_manager.c: 60:     if((1==INTCONbits.RBIE) && (1==I
      +                          NTCONbits.RBIF) && (PORTBbits.RB4==GPIO_STATE_HIGH)
  3085   001080  A6F2               	btfss	242,3,c	;volatile
  3086   001082  EF45  F008         	goto	i2u250_41
  3087   001086  EF47  F008         	goto	i2u250_40
  3088   00108A                     i2u250_41:
  3089   00108A  EF62  F008         	goto	i2l1026
  3090   00108E                     i2u250_40:
  3091   00108E  A0F2               	btfss	242,0,c	;volatile
  3092   001090  EF4C  F008         	goto	i2u251_41
  3093   001094  EF4E  F008         	goto	i2u251_40
  3094   001098                     i2u251_41:
  3095   001098  EF62  F008         	goto	i2l1026
  3096   00109C                     i2u251_40:
  3097   00109C  A881               	btfss	129,4,c	;volatile
  3098   00109E  EF53  F008         	goto	i2u252_41
  3099   0010A2  EF55  F008         	goto	i2u252_40
  3100   0010A6                     i2u252_41:
  3101   0010A6  EF62  F008         	goto	i2l1026
  3102   0010AA                     i2u252_40:
  3103   0010AA  0422               	decf	_RB4_Flag^0,w,c	;volatile
  3104   0010AC  A4D8               	btfss	status,2,c
  3105   0010AE  EF5B  F008         	goto	i2u253_41
  3106   0010B2  EF5D  F008         	goto	i2u253_40
  3107   0010B6                     i2u253_41:
  3108   0010B6  EF62  F008         	goto	i2l1026
  3109   0010BA                     i2u253_40:
  3110   0010BA                     
  3111                           ;MCAL_Layer/Interrupt/mcal_interrupt_manager.c: 62:     {;MCAL_Layer/Interrupt/mcal_inte
      +                          rrupt_manager.c: 63:         RB4_Flag=0;
  3112   0010BA  0E00               	movlw	0
  3113   0010BC  6E22               	movwf	_RB4_Flag^0,c	;volatile
  3114   0010BE                     
  3115                           ;MCAL_Layer/Interrupt/mcal_interrupt_manager.c: 64:         RB4_ISR(1);
  3116   0010BE  0E01               	movlw	1
  3117   0010C0  ECD2  F00E         	call	_RB4_ISR
  3118   0010C4                     i2l1026:
  3119                           
  3120                           ;MCAL_Layer/Interrupt/mcal_interrupt_manager.c: 68:     if((1==INTCONbits.RBIE) && (1==I
      +                          NTCONbits.RBIF)&& (PORTBbits.RB4==GPIO_STATE_LOW)
  3121   0010C4  A6F2               	btfss	242,3,c	;volatile
  3122   0010C6  EF67  F008         	goto	i2u254_41
  3123   0010CA  EF69  F008         	goto	i2u254_40
  3124   0010CE                     i2u254_41:
  3125   0010CE  EF84  F008         	goto	i2l1028
  3126   0010D2                     i2u254_40:
  3127   0010D2  A0F2               	btfss	242,0,c	;volatile
  3128   0010D4  EF6E  F008         	goto	i2u255_41
  3129   0010D8  EF70  F008         	goto	i2u255_40
  3130   0010DC                     i2u255_41:
  3131   0010DC  EF84  F008         	goto	i2l1028
  3132   0010E0                     i2u255_40:
  3133   0010E0  B881               	btfsc	129,4,c	;volatile
  3134   0010E2  EF75  F008         	goto	i2u256_41
  3135   0010E6  EF77  F008         	goto	i2u256_40
  3136   0010EA                     i2u256_41:
  3137   0010EA  EF84  F008         	goto	i2l1028
  3138   0010EE                     i2u256_40:
  3139   0010EE  5022               	movf	_RB4_Flag^0,w,c	;volatile
  3140   0010F0  A4D8               	btfss	status,2,c
  3141   0010F2  EF7D  F008         	goto	i2u257_41
  3142   0010F6  EF7F  F008         	goto	i2u257_40
  3143   0010FA                     i2u257_41:
  3144   0010FA  EF84  F008         	goto	i2l1028
  3145   0010FE                     i2u257_40:
  3146   0010FE                     
  3147                           ;MCAL_Layer/Interrupt/mcal_interrupt_manager.c: 70:     {;MCAL_Layer/Interrupt/mcal_inte
      +                          rrupt_manager.c: 71:         RB4_Flag=1;
  3148   0010FE  0E01               	movlw	1
  3149   001100  6E22               	movwf	_RB4_Flag^0,c	;volatile
  3150   001102                     
  3151                           ;MCAL_Layer/Interrupt/mcal_interrupt_manager.c: 72:         RB4_ISR(0);
  3152   001102  0E00               	movlw	0
  3153   001104  ECD2  F00E         	call	_RB4_ISR
  3154   001108                     i2l1028:
  3155                           
  3156                           ;MCAL_Layer/Interrupt/mcal_interrupt_manager.c: 80:     if((1==INTCONbits.RBIE) && (1==I
      +                          NTCONbits.RBIF) && (PORTBbits.RB5==GPIO_STATE_HIGH)
  3157   001108  A6F2               	btfss	242,3,c	;volatile
  3158   00110A  EF89  F008         	goto	i2u258_41
  3159   00110E  EF8B  F008         	goto	i2u258_40
  3160   001112                     i2u258_41:
  3161   001112  EFA6  F008         	goto	i2l1030
  3162   001116                     i2u258_40:
  3163   001116  A0F2               	btfss	242,0,c	;volatile
  3164   001118  EF90  F008         	goto	i2u259_41
  3165   00111C  EF92  F008         	goto	i2u259_40
  3166   001120                     i2u259_41:
  3167   001120  EFA6  F008         	goto	i2l1030
  3168   001124                     i2u259_40:
  3169   001124  AA81               	btfss	129,5,c	;volatile
  3170   001126  EF97  F008         	goto	i2u260_41
  3171   00112A  EF99  F008         	goto	i2u260_40
  3172   00112E                     i2u260_41:
  3173   00112E  EFA6  F008         	goto	i2l1030
  3174   001132                     i2u260_40:
  3175   001132  0421               	decf	_RB5_Flag^0,w,c	;volatile
  3176   001134  A4D8               	btfss	status,2,c
  3177   001136  EF9F  F008         	goto	i2u261_41
  3178   00113A  EFA1  F008         	goto	i2u261_40
  3179   00113E                     i2u261_41:
  3180   00113E  EFA6  F008         	goto	i2l1030
  3181   001142                     i2u261_40:
  3182   001142                     
  3183                           ;MCAL_Layer/Interrupt/mcal_interrupt_manager.c: 81:             &&(RB5_Flag==1)){;MCAL_L
      +                          ayer/Interrupt/mcal_interrupt_manager.c: 82:         RB5_Flag=0;
  3184   001142  0E00               	movlw	0
  3185   001144  6E21               	movwf	_RB5_Flag^0,c	;volatile
  3186   001146                     
  3187                           ;MCAL_Layer/Interrupt/mcal_interrupt_manager.c: 83:         RB5_ISR(1);
  3188   001146  0E01               	movlw	1
  3189   001148  ECC5  F00E         	call	_RB5_ISR
  3190   00114C                     i2l1030:
  3191                           
  3192                           ;MCAL_Layer/Interrupt/mcal_interrupt_manager.c: 87:     if((1==INTCONbits.RBIE) && (1==I
      +                          NTCONbits.RBIF) && (PORTBbits.RB5==GPIO_STATE_LOW)
  3193   00114C  A6F2               	btfss	242,3,c	;volatile
  3194   00114E  EFAB  F008         	goto	i2u262_41
  3195   001152  EFAD  F008         	goto	i2u262_40
  3196   001156                     i2u262_41:
  3197   001156  EFC8  F008         	goto	i2l1032
  3198   00115A                     i2u262_40:
  3199   00115A  A0F2               	btfss	242,0,c	;volatile
  3200   00115C  EFB2  F008         	goto	i2u263_41
  3201   001160  EFB4  F008         	goto	i2u263_40
  3202   001164                     i2u263_41:
  3203   001164  EFC8  F008         	goto	i2l1032
  3204   001168                     i2u263_40:
  3205   001168  BA81               	btfsc	129,5,c	;volatile
  3206   00116A  EFB9  F008         	goto	i2u264_41
  3207   00116E  EFBB  F008         	goto	i2u264_40
  3208   001172                     i2u264_41:
  3209   001172  EFC8  F008         	goto	i2l1032
  3210   001176                     i2u264_40:
  3211   001176  5021               	movf	_RB5_Flag^0,w,c	;volatile
  3212   001178  A4D8               	btfss	status,2,c
  3213   00117A  EFC1  F008         	goto	i2u265_41
  3214   00117E  EFC3  F008         	goto	i2u265_40
  3215   001182                     i2u265_41:
  3216   001182  EFC8  F008         	goto	i2l1032
  3217   001186                     i2u265_40:
  3218   001186                     
  3219                           ;MCAL_Layer/Interrupt/mcal_interrupt_manager.c: 88:             &&(RB5_Flag==0)){;MCAL_L
      +                          ayer/Interrupt/mcal_interrupt_manager.c: 89:         RB5_Flag=1;
  3220   001186  0E01               	movlw	1
  3221   001188  6E21               	movwf	_RB5_Flag^0,c	;volatile
  3222   00118A                     
  3223                           ;MCAL_Layer/Interrupt/mcal_interrupt_manager.c: 90:         RB5_ISR(0);
  3224   00118A  0E00               	movlw	0
  3225   00118C  ECC5  F00E         	call	_RB5_ISR
  3226   001190                     i2l1032:
  3227                           
  3228                           ;MCAL_Layer/Interrupt/mcal_interrupt_manager.c: 97:     if((1==INTCONbits.RBIE) && (1==I
      +                          NTCONbits.RBIF) && (PORTBbits.RB6==GPIO_STATE_HIGH)
  3229   001190  A6F2               	btfss	242,3,c	;volatile
  3230   001192  EFCD  F008         	goto	i2u266_41
  3231   001196  EFCF  F008         	goto	i2u266_40
  3232   00119A                     i2u266_41:
  3233   00119A  EFEA  F008         	goto	i2l1034
  3234   00119E                     i2u266_40:
  3235   00119E  A0F2               	btfss	242,0,c	;volatile
  3236   0011A0  EFD4  F008         	goto	i2u267_41
  3237   0011A4  EFD6  F008         	goto	i2u267_40
  3238   0011A8                     i2u267_41:
  3239   0011A8  EFEA  F008         	goto	i2l1034
  3240   0011AC                     i2u267_40:
  3241   0011AC  AC81               	btfss	129,6,c	;volatile
  3242   0011AE  EFDB  F008         	goto	i2u268_41
  3243   0011B2  EFDD  F008         	goto	i2u268_40
  3244   0011B6                     i2u268_41:
  3245   0011B6  EFEA  F008         	goto	i2l1034
  3246   0011BA                     i2u268_40:
  3247   0011BA  0420               	decf	_RB6_Flag^0,w,c	;volatile
  3248   0011BC  A4D8               	btfss	status,2,c
  3249   0011BE  EFE3  F008         	goto	i2u269_41
  3250   0011C2  EFE5  F008         	goto	i2u269_40
  3251   0011C6                     i2u269_41:
  3252   0011C6  EFEA  F008         	goto	i2l1034
  3253   0011CA                     i2u269_40:
  3254   0011CA                     
  3255                           ;MCAL_Layer/Interrupt/mcal_interrupt_manager.c: 98:             &&(RB6_Flag==1)){;MCAL_L
      +                          ayer/Interrupt/mcal_interrupt_manager.c: 99:         RB6_Flag=0;
  3256   0011CA  0E00               	movlw	0
  3257   0011CC  6E20               	movwf	_RB6_Flag^0,c	;volatile
  3258   0011CE                     
  3259                           ;MCAL_Layer/Interrupt/mcal_interrupt_manager.c: 100:         RB6_ISR(1);
  3260   0011CE  0E01               	movlw	1
  3261   0011D0  ECB8  F00E         	call	_RB6_ISR
  3262   0011D4                     i2l1034:
  3263                           
  3264                           ;MCAL_Layer/Interrupt/mcal_interrupt_manager.c: 104:     if((1==INTCONbits.RBIE) && (1==
      +                          INTCONbits.RBIF) && (PORTBbits.RB6==GPIO_STATE_LOW)
  3265   0011D4  A6F2               	btfss	242,3,c	;volatile
  3266   0011D6  EFEF  F008         	goto	i2u270_41
  3267   0011DA  EFF1  F008         	goto	i2u270_40
  3268   0011DE                     i2u270_41:
  3269   0011DE  EF0C  F009         	goto	i2l1036
  3270   0011E2                     i2u270_40:
  3271   0011E2  A0F2               	btfss	242,0,c	;volatile
  3272   0011E4  EFF6  F008         	goto	i2u271_41
  3273   0011E8  EFF8  F008         	goto	i2u271_40
  3274   0011EC                     i2u271_41:
  3275   0011EC  EF0C  F009         	goto	i2l1036
  3276   0011F0                     i2u271_40:
  3277   0011F0  BC81               	btfsc	129,6,c	;volatile
  3278   0011F2  EFFD  F008         	goto	i2u272_41
  3279   0011F6  EFFF  F008         	goto	i2u272_40
  3280   0011FA                     i2u272_41:
  3281   0011FA  EF0C  F009         	goto	i2l1036
  3282   0011FE                     i2u272_40:
  3283   0011FE  5020               	movf	_RB6_Flag^0,w,c	;volatile
  3284   001200  A4D8               	btfss	status,2,c
  3285   001202  EF05  F009         	goto	i2u273_41
  3286   001206  EF07  F009         	goto	i2u273_40
  3287   00120A                     i2u273_41:
  3288   00120A  EF0C  F009         	goto	i2l1036
  3289   00120E                     i2u273_40:
  3290   00120E                     
  3291                           ;MCAL_Layer/Interrupt/mcal_interrupt_manager.c: 105:             &&(RB6_Flag==0)){;MCAL_
      +                          Layer/Interrupt/mcal_interrupt_manager.c: 106:         RB6_Flag=1;
  3292   00120E  0E01               	movlw	1
  3293   001210  6E20               	movwf	_RB6_Flag^0,c	;volatile
  3294   001212                     
  3295                           ;MCAL_Layer/Interrupt/mcal_interrupt_manager.c: 107:         RB6_ISR(0);
  3296   001212  0E00               	movlw	0
  3297   001214  ECB8  F00E         	call	_RB6_ISR
  3298   001218                     i2l1036:
  3299                           
  3300                           ;MCAL_Layer/Interrupt/mcal_interrupt_manager.c: 114:     if((1==INTCONbits.RBIE) && (1==
      +                          INTCONbits.RBIF) && (PORTBbits.RB7==GPIO_STATE_HIGH)
  3301   001218  A6F2               	btfss	242,3,c	;volatile
  3302   00121A  EF11  F009         	goto	i2u274_41
  3303   00121E  EF13  F009         	goto	i2u274_40
  3304   001222                     i2u274_41:
  3305   001222  EF2E  F009         	goto	i2l1038
  3306   001226                     i2u274_40:
  3307   001226  A0F2               	btfss	242,0,c	;volatile
  3308   001228  EF18  F009         	goto	i2u275_41
  3309   00122C  EF1A  F009         	goto	i2u275_40
  3310   001230                     i2u275_41:
  3311   001230  EF2E  F009         	goto	i2l1038
  3312   001234                     i2u275_40:
  3313   001234  AE81               	btfss	129,7,c	;volatile
  3314   001236  EF1F  F009         	goto	i2u276_41
  3315   00123A  EF21  F009         	goto	i2u276_40
  3316   00123E                     i2u276_41:
  3317   00123E  EF2E  F009         	goto	i2l1038
  3318   001242                     i2u276_40:
  3319   001242  041F               	decf	_RB7_Flag^0,w,c	;volatile
  3320   001244  A4D8               	btfss	status,2,c
  3321   001246  EF27  F009         	goto	i2u277_41
  3322   00124A  EF29  F009         	goto	i2u277_40
  3323   00124E                     i2u277_41:
  3324   00124E  EF2E  F009         	goto	i2l1038
  3325   001252                     i2u277_40:
  3326   001252                     
  3327                           ;MCAL_Layer/Interrupt/mcal_interrupt_manager.c: 115:             &&(RB7_Flag==1)){;MCAL_
      +                          Layer/Interrupt/mcal_interrupt_manager.c: 116:         RB7_Flag=0;
  3328   001252  0E00               	movlw	0
  3329   001254  6E1F               	movwf	_RB7_Flag^0,c	;volatile
  3330   001256                     
  3331                           ;MCAL_Layer/Interrupt/mcal_interrupt_manager.c: 117:         RB7_ISR(1);
  3332   001256  0E01               	movlw	1
  3333   001258  ECAB  F00E         	call	_RB7_ISR
  3334   00125C                     i2l1038:
  3335                           
  3336                           ;MCAL_Layer/Interrupt/mcal_interrupt_manager.c: 121:     if((1==INTCONbits.RBIE) && (1==
      +                          INTCONbits.RBIF) && (PORTBbits.RB7==GPIO_STATE_LOW)
  3337   00125C  A6F2               	btfss	242,3,c	;volatile
  3338   00125E  EF33  F009         	goto	i2u278_41
  3339   001262  EF35  F009         	goto	i2u278_40
  3340   001266                     i2u278_41:
  3341   001266  EF50  F009         	goto	i2l1041
  3342   00126A                     i2u278_40:
  3343   00126A  A0F2               	btfss	242,0,c	;volatile
  3344   00126C  EF3A  F009         	goto	i2u279_41
  3345   001270  EF3C  F009         	goto	i2u279_40
  3346   001274                     i2u279_41:
  3347   001274  EF50  F009         	goto	i2l1041
  3348   001278                     i2u279_40:
  3349   001278  BE81               	btfsc	129,7,c	;volatile
  3350   00127A  EF41  F009         	goto	i2u280_41
  3351   00127E  EF43  F009         	goto	i2u280_40
  3352   001282                     i2u280_41:
  3353   001282  EF50  F009         	goto	i2l1041
  3354   001286                     i2u280_40:
  3355   001286  501F               	movf	_RB7_Flag^0,w,c	;volatile
  3356   001288  A4D8               	btfss	status,2,c
  3357   00128A  EF49  F009         	goto	i2u281_41
  3358   00128E  EF4B  F009         	goto	i2u281_40
  3359   001292                     i2u281_41:
  3360   001292  EF50  F009         	goto	i2l1041
  3361   001296                     i2u281_40:
  3362   001296                     
  3363                           ;MCAL_Layer/Interrupt/mcal_interrupt_manager.c: 122:             &&(RB7_Flag==0)){;MCAL_
      +                          Layer/Interrupt/mcal_interrupt_manager.c: 123:         RB7_Flag=1;
  3364   001296  0E01               	movlw	1
  3365   001298  6E1F               	movwf	_RB7_Flag^0,c	;volatile
  3366   00129A                     
  3367                           ;MCAL_Layer/Interrupt/mcal_interrupt_manager.c: 124:         RB7_ISR(0);
  3368   00129A  0E00               	movlw	0
  3369   00129C  ECAB  F00E         	call	_RB7_ISR
  3370   0012A0                     i2l1041:
  3371   0012A0  C050  FFFB         	movff	??_General_Interrupt_Manager+1,pclatu
  3372   0012A4  C04F  FFFA         	movff	??_General_Interrupt_Manager,pclath
  3373   0012A8  9260               	bcf	int$flags,1,c	;clear compiler interrupt flag (level 2)
  3374   0012AA  0011               	retfie		f
  3375   0012AC                     __end_of_General_Interrupt_Manager:
  3376                           	callstack 0
  3377                           
  3378 ;; *************** function _RB7_ISR *****************
  3379 ;; Defined at:
  3380 ;;		line 692 in file "MCAL_Layer/Interrupt/mcal_external_interrupt.c"
  3381 ;; Parameters:    Size  Location     Type
  3382 ;;  state           1    wreg     unsigned char 
  3383 ;; Auto vars:     Size  Location     Type
  3384 ;;  state           1    0[COMRAM] unsigned char 
  3385 ;; Return value:  Size  Location     Type
  3386 ;;                  1    wreg      void 
  3387 ;; Registers used:
  3388 ;;		wreg, status,2, status,0
  3389 ;; Tracked objects:
  3390 ;;		On entry : 0/0
  3391 ;;		On exit  : 0/0
  3392 ;;		Unchanged: 0/0
  3393 ;; Data sizes:     COMRAM   BANK0   BANK1   BANK2   BANK3   BANK4   BANK5   BANK6   BANK7   BANK8   BANK9  BANK10  BANK1
      +1  BANK12  BANK13  BANK14  BANK15
  3394 ;;      Params:         0       0       0       0       0       0       0       0       0       0       0       0       
      +0       0       0       0       0
  3395 ;;      Locals:         1       0       0       0       0       0       0       0       0       0       0       0       
      +0       0       0       0       0
  3396 ;;      Temps:          0       0       0       0       0       0       0       0       0       0       0       0       
      +0       0       0       0       0
  3397 ;;      Totals:         1       0       0       0       0       0       0       0       0       0       0       0       
      +0       0       0       0       0
  3398 ;;Total ram usage:        1 bytes
  3399 ;; Hardware stack levels used: 1
  3400 ;; This function calls:
  3401 ;;		Nothing
  3402 ;; This function is called by:
  3403 ;;		_General_Interrupt_Manager
  3404 ;; This function uses a non-reentrant model
  3405 ;;
  3406                           
  3407                           	psect	text24
  3408   001D56                     __ptext24:
  3409                           	callstack 0
  3410   001D56                     _RB7_ISR:
  3411                           	callstack 25
  3412                           
  3413                           ;incstack = 0
  3414                           ;RB7_ISR@state stored from wreg
  3415   001D56  6E4B               	movwf	RB7_ISR@state^0,c
  3416   001D58                     
  3417                           ;MCAL_Layer/Interrupt/mcal_external_interrupt.c: 693:      (INTCONbits.RBIF=0);
  3418   001D58  90F2               	bcf	242,0,c	;volatile
  3419   001D5A                     
  3420                           ;MCAL_Layer/Interrupt/mcal_external_interrupt.c: 694:     if(state==0){
  3421   001D5A  504B               	movf	RB7_ISR@state^0,w,c
  3422   001D5C  A4D8               	btfss	status,2,c
  3423   001D5E  EFB3  F00E         	goto	i2u56_41
  3424   001D62  EFB5  F00E         	goto	i2u56_40
  3425   001D66                     i2u56_41:
  3426   001D66  EFB7  F00E         	goto	i2l2432
  3427   001D6A                     i2u56_40:
  3428   001D6A  EFB7  F00E         	goto	i2l950
  3429   001D6E                     i2l2432:
  3430   001D6E                     i2l950:
  3431   001D6E  0012               	return		;funcret
  3432   001D70                     __end_of_RB7_ISR:
  3433                           	callstack 0
  3434                           
  3435 ;; *************** function _RB6_ISR *****************
  3436 ;; Defined at:
  3437 ;;		line 670 in file "MCAL_Layer/Interrupt/mcal_external_interrupt.c"
  3438 ;; Parameters:    Size  Location     Type
  3439 ;;  state           1    wreg     unsigned char 
  3440 ;; Auto vars:     Size  Location     Type
  3441 ;;  state           1    0[COMRAM] unsigned char 
  3442 ;; Return value:  Size  Location     Type
  3443 ;;                  1    wreg      void 
  3444 ;; Registers used:
  3445 ;;		wreg, status,2, status,0
  3446 ;; Tracked objects:
  3447 ;;		On entry : 0/0
  3448 ;;		On exit  : 0/0
  3449 ;;		Unchanged: 0/0
  3450 ;; Data sizes:     COMRAM   BANK0   BANK1   BANK2   BANK3   BANK4   BANK5   BANK6   BANK7   BANK8   BANK9  BANK10  BANK1
      +1  BANK12  BANK13  BANK14  BANK15
  3451 ;;      Params:         0       0       0       0       0       0       0       0       0       0       0       0       
      +0       0       0       0       0
  3452 ;;      Locals:         1       0       0       0       0       0       0       0       0       0       0       0       
      +0       0       0       0       0
  3453 ;;      Temps:          0       0       0       0       0       0       0       0       0       0       0       0       
      +0       0       0       0       0
  3454 ;;      Totals:         1       0       0       0       0       0       0       0       0       0       0       0       
      +0       0       0       0       0
  3455 ;;Total ram usage:        1 bytes
  3456 ;; Hardware stack levels used: 1
  3457 ;; This function calls:
  3458 ;;		Nothing
  3459 ;; This function is called by:
  3460 ;;		_General_Interrupt_Manager
  3461 ;; This function uses a non-reentrant model
  3462 ;;
  3463                           
  3464                           	psect	text25
  3465   001D70                     __ptext25:
  3466                           	callstack 0
  3467   001D70                     _RB6_ISR:
  3468                           	callstack 25
  3469                           
  3470                           ;incstack = 0
  3471                           ;RB6_ISR@state stored from wreg
  3472   001D70  6E4B               	movwf	RB6_ISR@state^0,c
  3473   001D72                     
  3474                           ;MCAL_Layer/Interrupt/mcal_external_interrupt.c: 671:     (INTCONbits.RBIF=0);
  3475   001D72  90F2               	bcf	242,0,c	;volatile
  3476   001D74                     
  3477                           ;MCAL_Layer/Interrupt/mcal_external_interrupt.c: 672:     if(state==0){
  3478   001D74  504B               	movf	RB6_ISR@state^0,w,c
  3479   001D76  A4D8               	btfss	status,2,c
  3480   001D78  EFC0  F00E         	goto	i2u55_41
  3481   001D7C  EFC2  F00E         	goto	i2u55_40
  3482   001D80                     i2u55_41:
  3483   001D80  EFC4  F00E         	goto	i2l2418
  3484   001D84                     i2u55_40:
  3485   001D84  EFC4  F00E         	goto	i2l940
  3486   001D88                     i2l2418:
  3487   001D88                     i2l940:
  3488   001D88  0012               	return		;funcret
  3489   001D8A                     __end_of_RB6_ISR:
  3490                           	callstack 0
  3491                           
  3492 ;; *************** function _RB5_ISR *****************
  3493 ;; Defined at:
  3494 ;;		line 648 in file "MCAL_Layer/Interrupt/mcal_external_interrupt.c"
  3495 ;; Parameters:    Size  Location     Type
  3496 ;;  state           1    wreg     unsigned char 
  3497 ;; Auto vars:     Size  Location     Type
  3498 ;;  state           1    0[COMRAM] unsigned char 
  3499 ;; Return value:  Size  Location     Type
  3500 ;;                  1    wreg      void 
  3501 ;; Registers used:
  3502 ;;		wreg, status,2, status,0
  3503 ;; Tracked objects:
  3504 ;;		On entry : 0/0
  3505 ;;		On exit  : 0/0
  3506 ;;		Unchanged: 0/0
  3507 ;; Data sizes:     COMRAM   BANK0   BANK1   BANK2   BANK3   BANK4   BANK5   BANK6   BANK7   BANK8   BANK9  BANK10  BANK1
      +1  BANK12  BANK13  BANK14  BANK15
  3508 ;;      Params:         0       0       0       0       0       0       0       0       0       0       0       0       
      +0       0       0       0       0
  3509 ;;      Locals:         1       0       0       0       0       0       0       0       0       0       0       0       
      +0       0       0       0       0
  3510 ;;      Temps:          0       0       0       0       0       0       0       0       0       0       0       0       
      +0       0       0       0       0
  3511 ;;      Totals:         1       0       0       0       0       0       0       0       0       0       0       0       
      +0       0       0       0       0
  3512 ;;Total ram usage:        1 bytes
  3513 ;; Hardware stack levels used: 1
  3514 ;; This function calls:
  3515 ;;		Nothing
  3516 ;; This function is called by:
  3517 ;;		_General_Interrupt_Manager
  3518 ;; This function uses a non-reentrant model
  3519 ;;
  3520                           
  3521                           	psect	text26
  3522   001D8A                     __ptext26:
  3523                           	callstack 0
  3524   001D8A                     _RB5_ISR:
  3525                           	callstack 25
  3526                           
  3527                           ;incstack = 0
  3528                           ;RB5_ISR@state stored from wreg
  3529   001D8A  6E4B               	movwf	RB5_ISR@state^0,c
  3530   001D8C                     
  3531                           ;MCAL_Layer/Interrupt/mcal_external_interrupt.c: 649:     (INTCONbits.RBIF=0);
  3532   001D8C  90F2               	bcf	242,0,c	;volatile
  3533   001D8E                     
  3534                           ;MCAL_Layer/Interrupt/mcal_external_interrupt.c: 650:     if(state==0){
  3535   001D8E  504B               	movf	RB5_ISR@state^0,w,c
  3536   001D90  A4D8               	btfss	status,2,c
  3537   001D92  EFCD  F00E         	goto	i2u54_41
  3538   001D96  EFCF  F00E         	goto	i2u54_40
  3539   001D9A                     i2u54_41:
  3540   001D9A  EFD1  F00E         	goto	i2l2404
  3541   001D9E                     i2u54_40:
  3542   001D9E  EFD1  F00E         	goto	i2l930
  3543   001DA2                     i2l2404:
  3544   001DA2                     i2l930:
  3545   001DA2  0012               	return		;funcret
  3546   001DA4                     __end_of_RB5_ISR:
  3547                           	callstack 0
  3548                           
  3549 ;; *************** function _RB4_ISR *****************
  3550 ;; Defined at:
  3551 ;;		line 625 in file "MCAL_Layer/Interrupt/mcal_external_interrupt.c"
  3552 ;; Parameters:    Size  Location     Type
  3553 ;;  state           1    wreg     unsigned char 
  3554 ;; Auto vars:     Size  Location     Type
  3555 ;;  state           1    0[COMRAM] unsigned char 
  3556 ;; Return value:  Size  Location     Type
  3557 ;;                  1    wreg      void 
  3558 ;; Registers used:
  3559 ;;		wreg, status,2, status,0
  3560 ;; Tracked objects:
  3561 ;;		On entry : 0/0
  3562 ;;		On exit  : 0/0
  3563 ;;		Unchanged: 0/0
  3564 ;; Data sizes:     COMRAM   BANK0   BANK1   BANK2   BANK3   BANK4   BANK5   BANK6   BANK7   BANK8   BANK9  BANK10  BANK1
      +1  BANK12  BANK13  BANK14  BANK15
  3565 ;;      Params:         0       0       0       0       0       0       0       0       0       0       0       0       
      +0       0       0       0       0
  3566 ;;      Locals:         1       0       0       0       0       0       0       0       0       0       0       0       
      +0       0       0       0       0
  3567 ;;      Temps:          0       0       0       0       0       0       0       0       0       0       0       0       
      +0       0       0       0       0
  3568 ;;      Totals:         1       0       0       0       0       0       0       0       0       0       0       0       
      +0       0       0       0       0
  3569 ;;Total ram usage:        1 bytes
  3570 ;; Hardware stack levels used: 1
  3571 ;; This function calls:
  3572 ;;		Nothing
  3573 ;; This function is called by:
  3574 ;;		_General_Interrupt_Manager
  3575 ;; This function uses a non-reentrant model
  3576 ;;
  3577                           
  3578                           	psect	text27
  3579   001DA4                     __ptext27:
  3580                           	callstack 0
  3581   001DA4                     _RB4_ISR:
  3582                           	callstack 25
  3583                           
  3584                           ;incstack = 0
  3585                           ;RB4_ISR@state stored from wreg
  3586   001DA4  6E4B               	movwf	RB4_ISR@state^0,c
  3587   001DA6                     
  3588                           ;MCAL_Layer/Interrupt/mcal_external_interrupt.c: 626:     (INTCONbits.RBIF=0);
  3589   001DA6  90F2               	bcf	242,0,c	;volatile
  3590   001DA8                     
  3591                           ;MCAL_Layer/Interrupt/mcal_external_interrupt.c: 627:     if(state==0){
  3592   001DA8  504B               	movf	RB4_ISR@state^0,w,c
  3593   001DAA  A4D8               	btfss	status,2,c
  3594   001DAC  EFDA  F00E         	goto	i2u53_41
  3595   001DB0  EFDC  F00E         	goto	i2u53_40
  3596   001DB4                     i2u53_41:
  3597   001DB4  EFDE  F00E         	goto	i2l2390
  3598   001DB8                     i2u53_40:
  3599   001DB8  EFDE  F00E         	goto	i2l920
  3600   001DBC                     i2l2390:
  3601   001DBC                     i2l920:
  3602   001DBC  0012               	return		;funcret
  3603   001DBE                     __end_of_RB4_ISR:
  3604                           	callstack 0
  3605                           
  3606 ;; *************** function _INT2_ISR *****************
  3607 ;; Defined at:
  3608 ;;		line 609 in file "MCAL_Layer/Interrupt/mcal_external_interrupt.c"
  3609 ;; Parameters:    Size  Location     Type
  3610 ;;		None
  3611 ;; Auto vars:     Size  Location     Type
  3612 ;;		None
  3613 ;; Return value:  Size  Location     Type
  3614 ;;                  1    wreg      void 
  3615 ;; Registers used:
  3616 ;;		wreg, status,2, status,0, pcl, pclath, pclatu, tosl, cstack
  3617 ;; Tracked objects:
  3618 ;;		On entry : 0/0
  3619 ;;		On exit  : 0/0
  3620 ;;		Unchanged: 0/0
  3621 ;; Data sizes:     COMRAM   BANK0   BANK1   BANK2   BANK3   BANK4   BANK5   BANK6   BANK7   BANK8   BANK9  BANK10  BANK1
      +1  BANK12  BANK13  BANK14  BANK15
  3622 ;;      Params:         0       0       0       0       0       0       0       0       0       0       0       0       
      +0       0       0       0       0
  3623 ;;      Locals:         0       0       0       0       0       0       0       0       0       0       0       0       
      +0       0       0       0       0
  3624 ;;      Temps:          0       0       0       0       0       0       0       0       0       0       0       0       
      +0       0       0       0       0
  3625 ;;      Totals:         0       0       0       0       0       0       0       0       0       0       0       0       
      +0       0       0       0       0
  3626 ;;Total ram usage:        0 bytes
  3627 ;; Hardware stack levels used: 1
  3628 ;; Hardware stack levels required when called: 2
  3629 ;; This function calls:
  3630 ;;		NULL
  3631 ;;		_ISR_INT0_App
  3632 ;; This function is called by:
  3633 ;;		_General_Interrupt_Manager
  3634 ;; This function uses a non-reentrant model
  3635 ;;
  3636                           
  3637                           	psect	text28
  3638   001B90                     __ptext28:
  3639                           	callstack 0
  3640   001B90                     _INT2_ISR:
  3641                           	callstack 23
  3642   001B90                     
  3643                           ;MCAL_Layer/Interrupt/mcal_external_interrupt.c: 610:     (INTCON3bits.INT2IF=0);
  3644   001B90  92F0               	bcf	240,1,c	;volatile
  3645   001B92                     
  3646                           ;MCAL_Layer/Interrupt/mcal_external_interrupt.c: 611:     if(INT2_InterruptHandler){
  3647   001B92  503B               	movf	_INT2_InterruptHandler^0,w,c
  3648   001B94  103C               	iorwf	(_INT2_InterruptHandler+1)^0,w,c
  3649   001B96  B4D8               	btfsc	status,2,c
  3650   001B98  EFD0  F00D         	goto	i2u205_41
  3651   001B9C  EFD2  F00D         	goto	i2u205_40
  3652   001BA0                     i2u205_41:
  3653   001BA0  EFDE  F00D         	goto	i2l910
  3654   001BA4                     i2u205_40:
  3655   001BA4                     
  3656                           ;MCAL_Layer/Interrupt/mcal_external_interrupt.c: 612:         INT2_InterruptHandler();
  3657   001BA4  D802               	call	i2u206_48
  3658   001BA6  EFDE  F00D         	goto	i2u206_49
  3659   001BAA                     i2u206_48:
  3660   001BAA  0005               	push	
  3661   001BAC  6EFA               	movwf	pclath,c
  3662   001BAE  503B               	movf	_INT2_InterruptHandler^0,w,c
  3663   001BB0  6EFD               	movwf	tosl,c
  3664   001BB2  503C               	movf	(_INT2_InterruptHandler+1)^0,w,c
  3665   001BB4  6EFE               	movwf	tosh,c
  3666   001BB6  6AFF               	clrf	tosu,c
  3667   001BB8  50FA               	movf	pclath,w,c
  3668   001BBA  0012               	return		;indir
  3669   001BBC                     i2u206_49:
  3670   001BBC                     i2l910:
  3671   001BBC  0012               	return		;funcret
  3672   001BBE                     __end_of_INT2_ISR:
  3673                           	callstack 0
  3674                           
  3675 ;; *************** function _INT1_ISR *****************
  3676 ;; Defined at:
  3677 ;;		line 599 in file "MCAL_Layer/Interrupt/mcal_external_interrupt.c"
  3678 ;; Parameters:    Size  Location     Type
  3679 ;;		None
  3680 ;; Auto vars:     Size  Location     Type
  3681 ;;		None
  3682 ;; Return value:  Size  Location     Type
  3683 ;;                  1    wreg      void 
  3684 ;; Registers used:
  3685 ;;		wreg, status,2, status,0, pcl, pclath, pclatu, tosl, cstack
  3686 ;; Tracked objects:
  3687 ;;		On entry : 0/0
  3688 ;;		On exit  : 0/0
  3689 ;;		Unchanged: 0/0
  3690 ;; Data sizes:     COMRAM   BANK0   BANK1   BANK2   BANK3   BANK4   BANK5   BANK6   BANK7   BANK8   BANK9  BANK10  BANK1
      +1  BANK12  BANK13  BANK14  BANK15
  3691 ;;      Params:         0       0       0       0       0       0       0       0       0       0       0       0       
      +0       0       0       0       0
  3692 ;;      Locals:         0       0       0       0       0       0       0       0       0       0       0       0       
      +0       0       0       0       0
  3693 ;;      Temps:          0       0       0       0       0       0       0       0       0       0       0       0       
      +0       0       0       0       0
  3694 ;;      Totals:         0       0       0       0       0       0       0       0       0       0       0       0       
      +0       0       0       0       0
  3695 ;;Total ram usage:        0 bytes
  3696 ;; Hardware stack levels used: 1
  3697 ;; Hardware stack levels required when called: 2
  3698 ;; This function calls:
  3699 ;;		NULL
  3700 ;;		_ISR_INT0_App
  3701 ;; This function is called by:
  3702 ;;		_General_Interrupt_Manager
  3703 ;; This function uses a non-reentrant model
  3704 ;;
  3705                           
  3706                           	psect	text29
  3707   001BBE                     __ptext29:
  3708                           	callstack 0
  3709   001BBE                     _INT1_ISR:
  3710                           	callstack 23
  3711   001BBE                     
  3712                           ;MCAL_Layer/Interrupt/mcal_external_interrupt.c: 600:     (INTCON3bits.INT1IF=0);
  3713   001BBE  90F0               	bcf	240,0,c	;volatile
  3714   001BC0                     
  3715                           ;MCAL_Layer/Interrupt/mcal_external_interrupt.c: 601:     if(INT1_InterruptHandler){
  3716   001BC0  503D               	movf	_INT1_InterruptHandler^0,w,c
  3717   001BC2  103E               	iorwf	(_INT1_InterruptHandler+1)^0,w,c
  3718   001BC4  B4D8               	btfsc	status,2,c
  3719   001BC6  EFE7  F00D         	goto	i2u203_41
  3720   001BCA  EFE9  F00D         	goto	i2u203_40
  3721   001BCE                     i2u203_41:
  3722   001BCE  EFF5  F00D         	goto	i2l905
  3723   001BD2                     i2u203_40:
  3724   001BD2                     
  3725                           ;MCAL_Layer/Interrupt/mcal_external_interrupt.c: 602:         INT1_InterruptHandler();
  3726   001BD2  D802               	call	i2u204_48
  3727   001BD4  EFF5  F00D         	goto	i2u204_49
  3728   001BD8                     i2u204_48:
  3729   001BD8  0005               	push	
  3730   001BDA  6EFA               	movwf	pclath,c
  3731   001BDC  503D               	movf	_INT1_InterruptHandler^0,w,c
  3732   001BDE  6EFD               	movwf	tosl,c
  3733   001BE0  503E               	movf	(_INT1_InterruptHandler+1)^0,w,c
  3734   001BE2  6EFE               	movwf	tosh,c
  3735   001BE4  6AFF               	clrf	tosu,c
  3736   001BE6  50FA               	movf	pclath,w,c
  3737   001BE8  0012               	return		;indir
  3738   001BEA                     i2u204_49:
  3739   001BEA                     i2l905:
  3740   001BEA  0012               	return		;funcret
  3741   001BEC                     __end_of_INT1_ISR:
  3742                           	callstack 0
  3743                           
  3744 ;; *************** function _INT0_ISR *****************
  3745 ;; Defined at:
  3746 ;;		line 589 in file "MCAL_Layer/Interrupt/mcal_external_interrupt.c"
  3747 ;; Parameters:    Size  Location     Type
  3748 ;;		None
  3749 ;; Auto vars:     Size  Location     Type
  3750 ;;		None
  3751 ;; Return value:  Size  Location     Type
  3752 ;;                  1    wreg      void 
  3753 ;; Registers used:
  3754 ;;		wreg, status,2, status,0, pcl, pclath, pclatu, tosl, cstack
  3755 ;; Tracked objects:
  3756 ;;		On entry : 0/0
  3757 ;;		On exit  : 0/0
  3758 ;;		Unchanged: 0/0
  3759 ;; Data sizes:     COMRAM   BANK0   BANK1   BANK2   BANK3   BANK4   BANK5   BANK6   BANK7   BANK8   BANK9  BANK10  BANK1
      +1  BANK12  BANK13  BANK14  BANK15
  3760 ;;      Params:         0       0       0       0       0       0       0       0       0       0       0       0       
      +0       0       0       0       0
  3761 ;;      Locals:         0       0       0       0       0       0       0       0       0       0       0       0       
      +0       0       0       0       0
  3762 ;;      Temps:          0       0       0       0       0       0       0       0       0       0       0       0       
      +0       0       0       0       0
  3763 ;;      Totals:         0       0       0       0       0       0       0       0       0       0       0       0       
      +0       0       0       0       0
  3764 ;;Total ram usage:        0 bytes
  3765 ;; Hardware stack levels used: 1
  3766 ;; Hardware stack levels required when called: 2
  3767 ;; This function calls:
  3768 ;;		NULL
  3769 ;;		_ISR_INT0_App
  3770 ;; This function is called by:
  3771 ;;		_General_Interrupt_Manager
  3772 ;; This function uses a non-reentrant model
  3773 ;;
  3774                           
  3775                           	psect	text30
  3776   001BEC                     __ptext30:
  3777                           	callstack 0
  3778   001BEC                     _INT0_ISR:
  3779                           	callstack 23
  3780   001BEC                     
  3781                           ;MCAL_Layer/Interrupt/mcal_external_interrupt.c: 590:     (INTCONbits.INT0IF=0);
  3782   001BEC  92F2               	bcf	242,1,c	;volatile
  3783   001BEE                     
  3784                           ;MCAL_Layer/Interrupt/mcal_external_interrupt.c: 591:     if(INT0_InterruptHandler != ((
      +                          void*)0)){
  3785   001BEE  503F               	movf	_INT0_InterruptHandler^0,w,c
  3786   001BF0  1040               	iorwf	(_INT0_InterruptHandler+1)^0,w,c
  3787   001BF2  B4D8               	btfsc	status,2,c
  3788   001BF4  EFFE  F00D         	goto	i2u201_41
  3789   001BF8  EF00  F00E         	goto	i2u201_40
  3790   001BFC                     i2u201_41:
  3791   001BFC  EF0C  F00E         	goto	i2l900
  3792   001C00                     i2u201_40:
  3793   001C00                     
  3794                           ;MCAL_Layer/Interrupt/mcal_external_interrupt.c: 592:         INT0_InterruptHandler();
  3795   001C00  D802               	call	i2u202_48
  3796   001C02  EF0C  F00E         	goto	i2u202_49
  3797   001C06                     i2u202_48:
  3798   001C06  0005               	push	
  3799   001C08  6EFA               	movwf	pclath,c
  3800   001C0A  503F               	movf	_INT0_InterruptHandler^0,w,c
  3801   001C0C  6EFD               	movwf	tosl,c
  3802   001C0E  5040               	movf	(_INT0_InterruptHandler+1)^0,w,c
  3803   001C10  6EFE               	movwf	tosh,c
  3804   001C12  6AFF               	clrf	tosu,c
  3805   001C14  50FA               	movf	pclath,w,c
  3806   001C16  0012               	return		;indir
  3807   001C18                     i2u202_49:
  3808   001C18                     i2l900:
  3809   001C18  0012               	return		;funcret
  3810   001C1A                     __end_of_INT0_ISR:
  3811                           	callstack 0
  3812                           
  3813 ;; *************** function _ISR_INT0_App *****************
  3814 ;; Defined at:
  3815 ;;		line 65 in file "application.c"
  3816 ;; Parameters:    Size  Location     Type
  3817 ;;		None
  3818 ;; Auto vars:     Size  Location     Type
  3819 ;;		None
  3820 ;; Return value:  Size  Location     Type
  3821 ;;                  1    wreg      void 
  3822 ;; Registers used:
  3823 ;;		wreg, status,2, status,0, cstack
  3824 ;; Tracked objects:
  3825 ;;		On entry : 0/0
  3826 ;;		On exit  : 0/0
  3827 ;;		Unchanged: 0/0
  3828 ;; Data sizes:     COMRAM   BANK0   BANK1   BANK2   BANK3   BANK4   BANK5   BANK6   BANK7   BANK8   BANK9  BANK10  BANK1
      +1  BANK12  BANK13  BANK14  BANK15
  3829 ;;      Params:         0       0       0       0       0       0       0       0       0       0       0       0       
      +0       0       0       0       0
  3830 ;;      Locals:         0       0       0       0       0       0       0       0       0       0       0       0       
      +0       0       0       0       0
  3831 ;;      Temps:          0       0       0       0       0       0       0       0       0       0       0       0       
      +0       0       0       0       0
  3832 ;;      Totals:         0       0       0       0       0       0       0       0       0       0       0       0       
      +0       0       0       0       0
  3833 ;;Total ram usage:        0 bytes
  3834 ;; Hardware stack levels used: 1
  3835 ;; Hardware stack levels required when called: 1
  3836 ;; This function calls:
  3837 ;;		_eeprom_write_data
  3838 ;; This function is called by:
  3839 ;;		_INT0_ISR
  3840 ;;		_INT1_ISR
  3841 ;;		_INT2_ISR
  3842 ;; This function uses a non-reentrant model
  3843 ;;
  3844                           
  3845                           	psect	text31
  3846   001C1A                     __ptext31:
  3847                           	callstack 0
  3848   001C1A                     _ISR_INT0_App:
  3849                           	callstack 23
  3850   001C1A                     
  3851                           ;application.c: 67:    prog_selected++;
  3852   001C1A  2A4A               	incf	_prog_selected^0,f,c	;volatile
  3853   001C1C                     
  3854                           ;application.c: 68:    if(prog_selected==3)
  3855   001C1C  0E03               	movlw	3
  3856   001C1E  184A               	xorwf	_prog_selected^0,w,c	;volatile
  3857   001C20  A4D8               	btfss	status,2,c
  3858   001C22  EF15  F00E         	goto	i2u197_41
  3859   001C26  EF17  F00E         	goto	i2u197_40
  3860   001C2A                     i2u197_41:
  3861   001C2A  EF19  F00E         	goto	i2l3534
  3862   001C2E                     i2u197_40:
  3863   001C2E                     
  3864                           ;application.c: 69:    {;application.c: 70:        prog_selected=0;
  3865   001C2E  0E00               	movlw	0
  3866   001C30  6E4A               	movwf	_prog_selected^0,c	;volatile
  3867   001C32                     i2l3534:
  3868                           
  3869                           ;application.c: 72:     ret=eeprom_write_data(0x000,prog_selected);
  3870   001C32  0E00               	movlw	0
  3871   001C34  6E4C               	movwf	(eeprom_write_data@addr+1)^0,c
  3872   001C36  0E00               	movlw	0
  3873   001C38  6E4B               	movwf	eeprom_write_data@addr^0,c
  3874   001C3A  C04A  F04D         	movff	_prog_selected,eeprom_write_data@data	;volatile
  3875   001C3E  EC6B  F00D         	call	_eeprom_write_data	;wreg free
  3876   001C42  6E5F               	movwf	_ret^0,c
  3877   001C44  0012               	return		;funcret
  3878   001C46                     __end_of_ISR_INT0_App:
  3879                           	callstack 0
  3880                           
  3881 ;; *************** function _eeprom_write_data *****************
  3882 ;; Defined at:
  3883 ;;		line 20 in file "MCAL_Layer/hal_eeprom.c"
  3884 ;; Parameters:    Size  Location     Type
  3885 ;;  addr            2    0[COMRAM] unsigned short 
  3886 ;;  data            1    2[COMRAM] unsigned char 
  3887 ;; Auto vars:     Size  Location     Type
  3888 ;;  intr_status     1    3[COMRAM] unsigned char 
  3889 ;;  ret             1    0        unsigned char 
  3890 ;; Return value:  Size  Location     Type
  3891 ;;                  1    wreg      unsigned char 
  3892 ;; Registers used:
  3893 ;;		wreg, status,2, status,0
  3894 ;; Tracked objects:
  3895 ;;		On entry : 0/0
  3896 ;;		On exit  : 0/0
  3897 ;;		Unchanged: 0/0
  3898 ;; Data sizes:     COMRAM   BANK0   BANK1   BANK2   BANK3   BANK4   BANK5   BANK6   BANK7   BANK8   BANK9  BANK10  BANK1
      +1  BANK12  BANK13  BANK14  BANK15
  3899 ;;      Params:         3       0       0       0       0       0       0       0       0       0       0       0       
      +0       0       0       0       0
  3900 ;;      Locals:         1       0       0       0       0       0       0       0       0       0       0       0       
      +0       0       0       0       0
  3901 ;;      Temps:          0       0       0       0       0       0       0       0       0       0       0       0       
      +0       0       0       0       0
  3902 ;;      Totals:         4       0       0       0       0       0       0       0       0       0       0       0       
      +0       0       0       0       0
  3903 ;;Total ram usage:        4 bytes
  3904 ;; Hardware stack levels used: 1
  3905 ;; This function calls:
  3906 ;;		Nothing
  3907 ;; This function is called by:
  3908 ;;		_ISR_INT0_App
  3909 ;; This function uses a non-reentrant model
  3910 ;;
  3911                           
  3912                           	psect	text32
  3913   001AD6                     __ptext32:
  3914                           	callstack 0
  3915   001AD6                     _eeprom_write_data:
  3916                           	callstack 23
  3917   001AD6                     
  3918                           ;MCAL_Layer/hal_eeprom.c: 22:     uint8 intr_status;;MCAL_Layer/hal_eeprom.c: 25:     in
      +                          tr_status=INTCONbits.GIE;
  3919   001AD6  0E00               	movlw	0
  3920   001AD8  BEF2               	btfsc	242,7,c	;volatile
  3921   001ADA  0E01               	movlw	1
  3922   001ADC  6E4E               	movwf	eeprom_write_data@intr_status^0,c
  3923   001ADE                     
  3924                           ;MCAL_Layer/hal_eeprom.c: 27:     EEADRH=(uint8)((addr>>8)&0x03);
  3925   001ADE  504C               	movf	(eeprom_write_data@addr+1)^0,w,c
  3926   001AE0  0B03               	andlw	3
  3927   001AE2  6EAA               	movwf	170,c	;volatile
  3928   001AE4                     
  3929                           ;MCAL_Layer/hal_eeprom.c: 28:     EEADR=(uint8)((addr)&0xFF);
  3930   001AE4  C04B  FFA9         	movff	eeprom_write_data@addr,4009	;volatile
  3931   001AE8                     
  3932                           ;MCAL_Layer/hal_eeprom.c: 30:      EEDATA=data;
  3933   001AE8  C04D  FFA8         	movff	eeprom_write_data@data,4008	;volatile
  3934   001AEC                     
  3935                           ;MCAL_Layer/hal_eeprom.c: 32:      EECON1bits.EEPGD=0;
  3936   001AEC  9EA6               	bcf	166,7,c	;volsfr
  3937   001AEE                     
  3938                           ;MCAL_Layer/hal_eeprom.c: 34:      EECON1bits.CFGS=0;
  3939   001AEE  9CA6               	bcf	166,6,c	;volsfr
  3940   001AF0                     
  3941                           ;MCAL_Layer/hal_eeprom.c: 36:       EECON1bits.WREN=1;
  3942   001AF0  84A6               	bsf	166,2,c	;volsfr
  3943   001AF2                     
  3944                           ;MCAL_Layer/hal_eeprom.c: 38:      (INTCONbits.GIE=0);
  3945   001AF2  9EF2               	bcf	242,7,c	;volatile
  3946   001AF4                     
  3947                           ;MCAL_Layer/hal_eeprom.c: 40:     EECON2=0x55;
  3948   001AF4  0E55               	movlw	85
  3949   001AF6  6EA7               	movwf	167,c	;volsfr
  3950   001AF8                     
  3951                           ;MCAL_Layer/hal_eeprom.c: 41:     EECON2=0x0AA;
  3952   001AF8  0EAA               	movlw	170
  3953   001AFA  6EA7               	movwf	167,c	;volsfr
  3954   001AFC                     
  3955                           ;MCAL_Layer/hal_eeprom.c: 43:     EECON1bits.WR=1;
  3956   001AFC  82A6               	bsf	166,1,c	;volsfr
  3957   001AFE                     i2l1195:
  3958   001AFE  B2A6               	btfsc	166,1,c	;volsfr
  3959   001B00  EF84  F00D         	goto	i2u186_41
  3960   001B04  EF86  F00D         	goto	i2u186_40
  3961   001B08                     i2u186_41:
  3962   001B08  EF7F  F00D         	goto	i2l1195
  3963   001B0C                     i2u186_40:
  3964   001B0C                     
  3965                           ;MCAL_Layer/hal_eeprom.c: 47:     EECON1bits.WREN=0;
  3966   001B0C  94A6               	bcf	166,2,c	;volsfr
  3967                           
  3968                           ;MCAL_Layer/hal_eeprom.c: 49:     INTCONbits.GIE= intr_status;
  3969   001B0E  B04E               	btfsc	eeprom_write_data@intr_status^0,0,c
  3970   001B10  D002               	bra	i2u187_45
  3971   001B12  9EF2               	bcf	242,7,c	;volatile
  3972   001B14  D001               	bra	i2u187_46
  3973   001B16                     i2u187_45:
  3974   001B16  8EF2               	bsf	242,7,c	;volatile
  3975   001B18                     i2u187_46:
  3976   001B18                     
  3977                           ;MCAL_Layer/hal_eeprom.c: 50:     return ret;
  3978   001B18  0E00               	movlw	0
  3979   001B1A  0012               	return		;funcret
  3980   001B1C                     __end_of_eeprom_write_data:
  3981                           	callstack 0
  3982                           
  3983                           	psect	text33
  3984   000000                     __ptext33:
  3985                           	callstack 0
  3986   000000                     
  3987                           	psect	rparam
  3988   000000                     
  3989                           	psect	temp
  3990   000060                     btemp:
  3991                           	callstack 0
  3992   000060                     	ds	1
  3993   000000                     int$flags	set	btemp
  3994   000000                     wtemp8	set	btemp+1
  3995   000000                     ttemp5	set	btemp+1
  3996   000000                     ttemp6	set	btemp+4
  3997   000000                     ttemp7	set	btemp+8
  3998                           
  3999                           	psect	idloc
  4000                           
  4001                           ;Config register IDLOC0 @ 0x200000
  4002                           ;	unspecified, using default values
  4003   200000                     	org	2097152
  4004   200000  FF                 	db	255
  4005                           
  4006                           ;Config register IDLOC1 @ 0x200001
  4007                           ;	unspecified, using default values
  4008   200001                     	org	2097153
  4009   200001  FF                 	db	255
  4010                           
  4011                           ;Config register IDLOC2 @ 0x200002
  4012                           ;	unspecified, using default values
  4013   200002                     	org	2097154
  4014   200002  FF                 	db	255
  4015                           
  4016                           ;Config register IDLOC3 @ 0x200003
  4017                           ;	unspecified, using default values
  4018   200003                     	org	2097155
  4019   200003  FF                 	db	255
  4020                           
  4021                           ;Config register IDLOC4 @ 0x200004
  4022                           ;	unspecified, using default values
  4023   200004                     	org	2097156
  4024   200004  FF                 	db	255
  4025                           
  4026                           ;Config register IDLOC5 @ 0x200005
  4027                           ;	unspecified, using default values
  4028   200005                     	org	2097157
  4029   200005  FF                 	db	255
  4030                           
  4031                           ;Config register IDLOC6 @ 0x200006
  4032                           ;	unspecified, using default values
  4033   200006                     	org	2097158
  4034   200006  FF                 	db	255
  4035                           
  4036                           ;Config register IDLOC7 @ 0x200007
  4037                           ;	unspecified, using default values
  4038   200007                     	org	2097159
  4039   200007  FF                 	db	255
  4040                           
  4041                           	psect	config
  4042                           
  4043                           ; Padding undefined space
  4044   300000                     	org	3145728
  4045   300000  FF                 	db	255
  4046                           
  4047                           ;Config register CONFIG1H @ 0x300001
  4048                           ;	Oscillator Selection bits
  4049                           ;	OSC = HS, HS oscillator
  4050                           ;	Fail-Safe Clock Monitor Enable bit
  4051                           ;	FCMEN = OFF, Fail-Safe Clock Monitor disabled
  4052                           ;	Internal/External Oscillator Switchover bit
  4053                           ;	IESO = OFF, Oscillator Switchover mode disabled
  4054   300001                     	org	3145729
  4055   300001  02                 	db	2
  4056                           
  4057                           ;Config register CONFIG2L @ 0x300002
  4058                           ;	Power-up Timer Enable bit
  4059                           ;	PWRT = OFF, PWRT disabled
  4060                           ;	Brown-out Reset Enable bits
  4061                           ;	BOREN = OFF, Brown-out Reset disabled in hardware and software
  4062                           ;	Brown Out Reset Voltage bits
  4063                           ;	BORV = 1, 
  4064   300002                     	org	3145730
  4065   300002  09                 	db	9
  4066                           
  4067                           ;Config register CONFIG2H @ 0x300003
  4068                           ;	Watchdog Timer Enable bit
  4069                           ;	WDT = OFF, WDT disabled (control is placed on the SWDTEN bit)
  4070                           ;	Watchdog Timer Postscale Select bits
  4071                           ;	WDTPS = 32768, 1:32768
  4072   300003                     	org	3145731
  4073   300003  1E                 	db	30
  4074                           
  4075                           ; Padding undefined space
  4076   300004                     	org	3145732
  4077   300004  FF                 	db	255
  4078                           
  4079                           ;Config register CONFIG3H @ 0x300005
  4080                           ;	CCP2 MUX bit
  4081                           ;	CCP2MX = PORTC, CCP2 input/output is multiplexed with RC1
  4082                           ;	PORTB A/D Enable bit
  4083                           ;	PBADEN = OFF, PORTB<4:0> pins are configured as digital I/O on Reset
  4084                           ;	Low-Power Timer1 Oscillator Enable bit
  4085                           ;	LPT1OSC = OFF, Timer1 configured for higher power operation
  4086                           ;	MCLR Pin Enable bit
  4087                           ;	MCLRE = ON, MCLR pin enabled; RE3 input pin disabled
  4088   300005                     	org	3145733
  4089   300005  81                 	db	129
  4090                           
  4091                           ;Config register CONFIG4L @ 0x300006
  4092                           ;	Stack Full/Underflow Reset Enable bit
  4093                           ;	STVREN = ON, Stack full/underflow will cause Reset
  4094                           ;	Single-Supply ICSP Enable bit
  4095                           ;	LVP = OFF, Single-Supply ICSP disabled
  4096                           ;	Extended Instruction Set Enable bit
  4097                           ;	XINST = OFF, Instruction set extension and Indexed Addressing mode disabled (Legacy mo
      +                          de)
  4098                           ;	Background Debugger Enable bit
  4099                           ;	DEBUG = 0x1, unprogrammed default
  4100   300006                     	org	3145734
  4101   300006  81                 	db	129
  4102                           
  4103                           ; Padding undefined space
  4104   300007                     	org	3145735
  4105   300007  FF                 	db	255
  4106                           
  4107                           ;Config register CONFIG5L @ 0x300008
  4108                           ;	Code Protection bit
  4109                           ;	CP0 = OFF, Block 0 (000800-003FFFh) not code-protected
  4110                           ;	Code Protection bit
  4111                           ;	CP1 = OFF, Block 1 (004000-007FFFh) not code-protected
  4112                           ;	Code Protection bit
  4113                           ;	CP2 = OFF, Block 2 (008000-00BFFFh) not code-protected
  4114                           ;	Code Protection bit
  4115                           ;	CP3 = OFF, Block 3 (00C000-00FFFFh) not code-protected
  4116   300008                     	org	3145736
  4117   300008  0F                 	db	15
  4118                           
  4119                           ;Config register CONFIG5H @ 0x300009
  4120                           ;	Boot Block Code Protection bit
  4121                           ;	CPB = OFF, Boot block (000000-0007FFh) not code-protected
  4122                           ;	Data EEPROM Code Protection bit
  4123                           ;	CPD = OFF, Data EEPROM not code-protected
  4124   300009                     	org	3145737
  4125   300009  C0                 	db	192
  4126                           
  4127                           ;Config register CONFIG6L @ 0x30000A
  4128                           ;	Write Protection bit
  4129                           ;	WRT0 = OFF, Block 0 (000800-003FFFh) not write-protected
  4130                           ;	Write Protection bit
  4131                           ;	WRT1 = OFF, Block 1 (004000-007FFFh) not write-protected
  4132                           ;	Write Protection bit
  4133                           ;	WRT2 = OFF, Block 2 (008000-00BFFFh) not write-protected
  4134                           ;	Write Protection bit
  4135                           ;	WRT3 = OFF, Block 3 (00C000-00FFFFh) not write-protected
  4136   30000A                     	org	3145738
  4137   30000A  0F                 	db	15
  4138                           
  4139                           ;Config register CONFIG6H @ 0x30000B
  4140                           ;	Configuration Register Write Protection bit
  4141                           ;	WRTC = OFF, Configuration registers (300000-3000FFh) not write-protected
  4142                           ;	Boot Block Write Protection bit
  4143                           ;	WRTB = OFF, Boot Block (000000-0007FFh) not write-protected
  4144                           ;	Data EEPROM Write Protection bit
  4145                           ;	WRTD = OFF, Data EEPROM not write-protected
  4146   30000B                     	org	3145739
  4147   30000B  E0                 	db	224
  4148                           
  4149                           ;Config register CONFIG7L @ 0x30000C
  4150                           ;	Table Read Protection bit
  4151                           ;	EBTR0 = OFF, Block 0 (000800-003FFFh) not protected from table reads executed in other
      +                           blocks
  4152                           ;	Table Read Protection bit
  4153                           ;	EBTR1 = OFF, Block 1 (004000-007FFFh) not protected from table reads executed in other
      +                           blocks
  4154                           ;	Table Read Protection bit
  4155                           ;	EBTR2 = OFF, Block 2 (008000-00BFFFh) not protected from table reads executed in other
      +                           blocks
  4156                           ;	Table Read Protection bit
  4157                           ;	EBTR3 = OFF, Block 3 (00C000-00FFFFh) not protected from table reads executed in other
      +                           blocks
  4158   30000C                     	org	3145740
  4159   30000C  0F                 	db	15
  4160                           
  4161                           ;Config register CONFIG7H @ 0x30000D
  4162                           ;	Boot Block Table Read Protection bit
  4163                           ;	EBTRB = OFF, Boot Block (000000-0007FFh) not protected from table reads executed in ot
      +                          her blocks
  4164   30000D                     	org	3145741
  4165   30000D  40                 	db	64
  4166                           tosu	equ	0xFFF
  4167                           tosh	equ	0xFFE
  4168                           tosl	equ	0xFFD
  4169                           stkptr	equ	0xFFC
  4170                           pclatu	equ	0xFFB
  4171                           pclath	equ	0xFFA
  4172                           pcl	equ	0xFF9
  4173                           tblptru	equ	0xFF8
  4174                           tblptrh	equ	0xFF7
  4175                           tblptrl	equ	0xFF6
  4176                           tablat	equ	0xFF5
  4177                           prodh	equ	0xFF4
  4178                           prodl	equ	0xFF3
  4179                           indf0	equ	0xFEF
  4180                           postinc0	equ	0xFEE
  4181                           postdec0	equ	0xFED
  4182                           preinc0	equ	0xFEC
  4183                           plusw0	equ	0xFEB
  4184                           fsr0h	equ	0xFEA
  4185                           fsr0l	equ	0xFE9
  4186                           wreg	equ	0xFE8
  4187                           indf1	equ	0xFE7
  4188                           postinc1	equ	0xFE6
  4189                           postdec1	equ	0xFE5
  4190                           preinc1	equ	0xFE4
  4191                           plusw1	equ	0xFE3
  4192                           fsr1h	equ	0xFE2
  4193                           fsr1l	equ	0xFE1
  4194                           bsr	equ	0xFE0
  4195                           indf2	equ	0xFDF
  4196                           postinc2	equ	0xFDE
  4197                           postdec2	equ	0xFDD
  4198                           preinc2	equ	0xFDC
  4199                           plusw2	equ	0xFDB
  4200                           fsr2h	equ	0xFDA
  4201                           fsr2l	equ	0xFD9
  4202                           status	equ	0xFD8

Data Sizes:
    Strings     3
    Constant    16
    Data        42
    BSS         32
    Persistent  1
    Stack       0

Auto Spaces:
    Space          Size  Autos    Used
    COMRAM          126     20      95
    BANK0           128      0       0
    BANK1           256      0       0
    BANK2           256      0       0
    BANK3           256      0       0
    BANK4           256      0       0
    BANK5           256      0       0
    BANK6           256      0       0
    BANK7           256      0       0
    BANK8           256      0       0
    BANK9           256      0       0
    BANK10          256      0       0
    BANK11          256      0       0
    BANK12          256      0       0
    BANK13          256      0       0
    BANK14          256      0       0
    BANK15          128      0       0

Pointer List with Targets:

    eeprom_read_data@data	PTR unsigned char  size(1) Largest target is 1
		 -> prog_selected(COMRAM[1]), 

    f$.$buffer	PTR unsigned char  size(2) Largest target is 0

    f$.$source	PTR const unsigned char  size(2) Largest target is 0

    gpio_pin_direction_init@pin_confg	PTR const struct . size(1) Largest target is 6
		 -> int0_obj(COMRAM[6]), led_init@pin_cfg(COMRAM[1]), relay_init@pin_obj(COMRAM[1]), 

    gpio_pin_init@pin_confg	PTR const struct . size(1) Largest target is 1
		 -> led_init@pin_cfg(COMRAM[1]), relay_init@pin_obj(COMRAM[1]), 

    gpio_pin_toggle@pin_confg	PTR const struct . size(1) Largest target is 1
		 -> led_toggle@pin_cfg(COMRAM[1]), relay_toggle@pin_obj(COMRAM[1]), 

    gpio_pin_write@pin_confg	PTR const struct . size(1) Largest target is 1
		 -> led_init@pin_cfg(COMRAM[1]), led_off@pin_cfg(COMRAM[1]), led_on@pin_cfg(COMRAM[1]), relay_init@pin_obj(COMRAM[1]), 
		 -> relay_off@pin_obj(COMRAM[1]), relay_on@pin_obj(COMRAM[1]), 

    INT0_InterruptHandler	PTR FTN()void  size(2) Largest target is 1
		 -> ISR_INT0_App(), NULL(), 

    int0_obj$external_interrupt_handler	PTR FTN()void  size(2) Largest target is 1
		 -> ISR_INT0_App(), 

    INT0_set_interrupt_handler@interrupt_handler	PTR FTN()void  size(2) Largest target is 1
		 -> ISR_INT0_App(), 

    INT1_InterruptHandler	PTR FTN()void  size(2) Largest target is 1
		 -> ISR_INT0_App(), NULL(), 

    INT1_set_interrupt_handler@interrupt_handler	PTR FTN()void  size(2) Largest target is 1
		 -> ISR_INT0_App(), 

    INT2_InterruptHandler	PTR FTN()void  size(2) Largest target is 1
		 -> ISR_INT0_App(), NULL(), 

    INT2_set_interrupt_handler@interrupt_handler	PTR FTN()void  size(2) Largest target is 1
		 -> ISR_INT0_App(), 

    interrupt_INTx_clear_flag@intr_obj	PTR const struct . size(1) Largest target is 6
		 -> int0_obj(COMRAM[6]), 

    interrupt_INTx_clear_flag@intr_obj$external_interrupt_handler	PTR FTN()void  size(2) Largest target is 1
		 -> ISR_INT0_App(), 

    interrupt_INTx_Disable@intr_obj	PTR const struct . size(1) Largest target is 6
		 -> int0_obj(COMRAM[6]), 

    interrupt_INTx_Disable@intr_obj$external_interrupt_handler	PTR FTN()void  size(2) Largest target is 1
		 -> ISR_INT0_App(), 

    interrupt_INTx_edge_set@intr_obj	PTR const struct . size(1) Largest target is 6
		 -> int0_obj(COMRAM[6]), 

    interrupt_INTx_edge_set@intr_obj$external_interrupt_handler	PTR FTN()void  size(2) Largest target is 1
		 -> ISR_INT0_App(), 

    interrupt_INTx_Enable@intr_obj	PTR const struct . size(1) Largest target is 6
		 -> int0_obj(COMRAM[6]), 

    interrupt_INTx_Enable@intr_obj$external_interrupt_handler	PTR FTN()void  size(2) Largest target is 1
		 -> ISR_INT0_App(), 

    interrupt_INTx_Init@intr_obj	PTR const struct . size(1) Largest target is 6
		 -> int0_obj(COMRAM[6]), 

    interrupt_INTx_pin_cfg@intr_obj	PTR const struct . size(1) Largest target is 6
		 -> int0_obj(COMRAM[6]), 

    interrupt_INTx_pin_cfg@intr_obj$external_interrupt_handler	PTR FTN()void  size(2) Largest target is 1
		 -> ISR_INT0_App(), 

    interrupt_INTx_set_interrupt_handler@intr_obj	PTR const struct . size(1) Largest target is 6
		 -> int0_obj(COMRAM[6]), 

    interrupt_INTx_set_interrupt_handler@intr_obj$external_interrupt_handler	PTR FTN()void  size(2) Largest target is 1
		 -> ISR_INT0_App(), 

    interrupt_RBx_Init@intr_obj$external_High_interrupt_handler	PTR FTN()void  size(2) Largest target is 0

    interrupt_RBx_Init@intr_obj$external_Low_interrupt_handler	PTR FTN()void  size(2) Largest target is 0

    lat_reg	PTR volatile unsigned char [5] size(2) Largest target is 1
		 -> LATA(BITBIGSFRll[1]), LATB(BITBIGSFRlh[1]), LATC(BITBIGSFRlh[1]), LATD(BITBIGSFRlh[1]), 
		 -> LATE(BITBIGSFRlh[1]), 

    led_init@led	PTR const struct . size(1) Largest target is 1
		 -> led_1(COMRAM[1]), led_2(COMRAM[1]), 

    led_off@led	PTR const struct . size(1) Largest target is 1
		 -> led_1(COMRAM[1]), led_2(COMRAM[1]), 

    led_toggle@led	PTR const struct . size(1) Largest target is 1
		 -> led_1(COMRAM[1]), led_2(COMRAM[1]), 

    port_reg	PTR volatile unsigned char [5] size(2) Largest target is 1
		 -> PORTA(BITBIGSFRll[1]), PORTB(BITBIGSFRll[1]), PORTC(BITBIGSFRll[1]), PORTD(BITBIGSFRll[1]), 
		 -> PORTE(BITBIGSFRll[1]), 

    RB4_High_InterruptHandler	PTR FTN()void  size(2) Largest target is 1
		 -> NULL(), 

    RB4_Low_InterruptHandler	PTR FTN()void  size(2) Largest target is 1
		 -> NULL(), 

    RB5_High_InterruptHandler	PTR FTN()void  size(2) Largest target is 1
		 -> NULL(), 

    RB5_Low_InterruptHandler	PTR FTN()void  size(2) Largest target is 1
		 -> NULL(), 

    RB6_High_InterruptHandler	PTR FTN()void  size(2) Largest target is 1
		 -> NULL(), 

    RB6_Low_InterruptHandler	PTR FTN()void  size(2) Largest target is 1
		 -> NULL(), 

    RB7_High_InterruptHandler	PTR FTN()void  size(2) Largest target is 1
		 -> NULL(), 

    RB7_Low_InterruptHandler	PTR FTN()void  size(2) Largest target is 1
		 -> NULL(), 

    S2084$buffer	PTR unsigned char  size(2) Largest target is 0

    S2084$source	PTR const unsigned char  size(2) Largest target is 0

    S845$external_interrupt_handler	PTR FTN()void  size(2) Largest target is 1
		 -> ISR_INT0_App(), 

    S883$external_High_interrupt_handler	PTR FTN()void  size(2) Largest target is 0

    S883$external_Low_interrupt_handler	PTR FTN()void  size(2) Largest target is 0

    sp__memset	PTR void  size(2) Largest target is 0

    tris_reg	PTR volatile unsigned char [5] size(2) Largest target is 1
		 -> TRISA(BITBIGSFRll[1]), TRISB(BITBIGSFRhllll[1]), TRISC(BITBIGSFRhllll[1]), TRISD(BITBIGSFRhllll[1]), 
		 -> TRISE(BITBIGSFRhllll[1]), 

    vfprintf$0	PTR struct _IO_FILE size(1) Largest target is 12
		 -> sprintf@f(COMRAM[12]), 

    vfprintf$1	PTR const unsigned char  size(1) Largest target is 3
		 -> STR_1(CODE[3]), STR_2(CODE[3]), STR_3(CODE[3]), 

    vfprintf$2	PTR PTR void  size(1) Largest target is 1
		 -> sprintf@ap(COMRAM[1]), 


Critical Paths under _main in COMRAM

    _program_3->_led_off
    _led_off->_gpio_pin_write
    _program_2->_led_toggle
    _program_1->_led_toggle
    _led_toggle->_gpio_pin_toggle
    _app_init->_led_init
    _led_init->_gpio_pin_init
    _gpio_pin_init->_gpio_pin_write
    _interrupt_INTx_Init->_interrupt_INTx_pin_cfg
    _interrupt_INTx_set_interrupt_handler->_INT0_set_interrupt_handler
    _interrupt_INTx_set_interrupt_handler->_INT1_set_interrupt_handler
    _interrupt_INTx_set_interrupt_handler->_INT2_set_interrupt_handler
    _interrupt_INTx_pin_cfg->_gpio_pin_direction_init

Critical Paths under _General_Interrupt_Manager in COMRAM

    _ISR_INT0_App->_eeprom_write_data

Critical Paths under _main in BANK0

    None.

Critical Paths under _General_Interrupt_Manager in BANK0

    None.

Critical Paths under _main in BANK1

    None.

Critical Paths under _General_Interrupt_Manager in BANK1

    None.

Critical Paths under _main in BANK2

    None.

Critical Paths under _General_Interrupt_Manager in BANK2

    None.

Critical Paths under _main in BANK3

    None.

Critical Paths under _General_Interrupt_Manager in BANK3

    None.

Critical Paths under _main in BANK4

    None.

Critical Paths under _General_Interrupt_Manager in BANK4

    None.

Critical Paths under _main in BANK5

    None.

Critical Paths under _General_Interrupt_Manager in BANK5

    None.

Critical Paths under _main in BANK6

    None.

Critical Paths under _General_Interrupt_Manager in BANK6

    None.

Critical Paths under _main in BANK7

    None.

Critical Paths under _General_Interrupt_Manager in BANK7

    None.

Critical Paths under _main in BANK8

    None.

Critical Paths under _General_Interrupt_Manager in BANK8

    None.

Critical Paths under _main in BANK9

    None.

Critical Paths under _General_Interrupt_Manager in BANK9

    None.

Critical Paths under _main in BANK10

    None.

Critical Paths under _General_Interrupt_Manager in BANK10

    None.

Critical Paths under _main in BANK11

    None.

Critical Paths under _General_Interrupt_Manager in BANK11

    None.

Critical Paths under _main in BANK12

    None.

Critical Paths under _General_Interrupt_Manager in BANK12

    None.

Critical Paths under _main in BANK13

    None.

Critical Paths under _General_Interrupt_Manager in BANK13

    None.

Critical Paths under _main in BANK14

    None.

Critical Paths under _General_Interrupt_Manager in BANK14

    None.

Critical Paths under _main in BANK15

    None.

Critical Paths under _General_Interrupt_Manager in BANK15

    None.

Call Graph Tables:

 ---------------------------------------------------------------------------------
 (Depth) Function   	        Calls       Base Space   Used Autos Params    Refs
 ---------------------------------------------------------------------------------
 (0) _main                                                 0     0      0   12935
                           _app_init
                   _eeprom_read_data
                          _program_1
                          _program_2
                          _program_3
 ---------------------------------------------------------------------------------
 (1) _program_3                                            0     0      0    3803
                            _led_off
 ---------------------------------------------------------------------------------
 (2) _led_off                                              4     3      1    3803
                                             14 COMRAM     3     2      1
                     _gpio_pin_write
 ---------------------------------------------------------------------------------
 (1) _program_2                                            2     2      0     542
                                             15 COMRAM     2     2      0
                         _led_toggle
 ---------------------------------------------------------------------------------
 (1) _program_1                                            2     2      0     542
                                             15 COMRAM     2     2      0
                         _led_toggle
 ---------------------------------------------------------------------------------
 (2) _led_toggle                                           4     3      1     542
                                             12 COMRAM     3     2      1
                    _gpio_pin_toggle
 ---------------------------------------------------------------------------------
 (3) _gpio_pin_toggle                                      6     5      1     264
                                              6 COMRAM     6     5      1
 ---------------------------------------------------------------------------------
 (1) _eeprom_read_data                                     4     1      3     265
                                              6 COMRAM     4     1      3
 ---------------------------------------------------------------------------------
 (1) _app_init                                             0     0      0    7783
                _interrupt_INTx_Init
                           _led_init
 ---------------------------------------------------------------------------------
 (2) _led_init                                             4     3      1    5418
                                             17 COMRAM     3     2      1
                      _gpio_pin_init
 ---------------------------------------------------------------------------------
 (3) _gpio_pin_init                                        3     2      1    5130
                                             14 COMRAM     3     2      1
            _gpio_pin_direction_init
                     _gpio_pin_write
 ---------------------------------------------------------------------------------
 (3) _gpio_pin_write                                       8     6      2    3523
                                              6 COMRAM     8     6      2
 ---------------------------------------------------------------------------------
 (2) _interrupt_INTx_Init                                  2     1      1    2365
                                             15 COMRAM     2     1      1
             _interrupt_INTx_Disable
              _interrupt_INTx_Enable
          _interrupt_INTx_clear_flag
            _interrupt_INTx_edge_set
             _interrupt_INTx_pin_cfg
_interrupt_INTx_set_interrupt_handle
 ---------------------------------------------------------------------------------
 (3) _interrupt_INTx_set_interrupt_handler                 4     3      1     601
                                              8 COMRAM     4     3      1
         _INT0_set_interrupt_handler
         _INT1_set_interrupt_handler
         _INT2_set_interrupt_handler
 ---------------------------------------------------------------------------------
 (4) _INT2_set_interrupt_handler                           3     1      2     129
                                              6 COMRAM     2     0      2
 ---------------------------------------------------------------------------------
 (4) _INT1_set_interrupt_handler                           3     1      2     129
                                              6 COMRAM     2     0      2
 ---------------------------------------------------------------------------------
 (4) _INT0_set_interrupt_handler                           3     1      2     129
                                              6 COMRAM     2     0      2
 ---------------------------------------------------------------------------------
 (3) _interrupt_INTx_pin_cfg                               2     1      1     704
                                             13 COMRAM     2     1      1
            _gpio_pin_direction_init
 ---------------------------------------------------------------------------------
 (4) _gpio_pin_direction_init                              7     6      1     559
                                              6 COMRAM     7     6      1
 ---------------------------------------------------------------------------------
 (3) _interrupt_INTx_edge_set                              4     3      1     280
                                              6 COMRAM     4     3      1
 ---------------------------------------------------------------------------------
 (3) _interrupt_INTx_clear_flag                            4     3      1     148
                                              6 COMRAM     4     3      1
 ---------------------------------------------------------------------------------
 (3) _interrupt_INTx_Enable                                4     3      1     148
                                              6 COMRAM     4     3      1
 ---------------------------------------------------------------------------------
 (3) _interrupt_INTx_Disable                               4     3      1     224
                                              6 COMRAM     4     3      1
 ---------------------------------------------------------------------------------
 Estimated maximum stack depth 4
 ---------------------------------------------------------------------------------
 (Depth) Function   	        Calls       Base Space   Used Autos Params    Refs
 ---------------------------------------------------------------------------------
 (5) _General_Interrupt_Manager                            2     2      0     912
                                              4 COMRAM     2     2      0
                           _INT0_ISR
                           _INT1_ISR
                           _INT2_ISR
                            _RB4_ISR
                            _RB5_ISR
                            _RB6_ISR
                            _RB7_ISR
 ---------------------------------------------------------------------------------
 (6) _RB7_ISR                                              1     1      0      30
                                              0 COMRAM     1     1      0
 ---------------------------------------------------------------------------------
 (6) _RB6_ISR                                              1     1      0      30
                                              0 COMRAM     1     1      0
 ---------------------------------------------------------------------------------
 (6) _RB5_ISR                                              1     1      0      30
                                              0 COMRAM     1     1      0
 ---------------------------------------------------------------------------------
 (6) _RB4_ISR                                              1     1      0      30
                                              0 COMRAM     1     1      0
 ---------------------------------------------------------------------------------
 (6) _INT2_ISR                                             0     0      0     264
                                NULL *
                       _ISR_INT0_App *
 ---------------------------------------------------------------------------------
 (6) _INT1_ISR                                             0     0      0     264
                                NULL *
                       _ISR_INT0_App *
 ---------------------------------------------------------------------------------
 (6) _INT0_ISR                                             0     0      0     264
                                NULL *
                       _ISR_INT0_App *
 ---------------------------------------------------------------------------------
 (7) _ISR_INT0_App                                         0     0      0     264
                  _eeprom_write_data
 ---------------------------------------------------------------------------------
 (8) _eeprom_write_data                                    5     2      3     264
                                              0 COMRAM     4     1      3
 ---------------------------------------------------------------------------------
 (7) NULL(Fake)                                            0     0      0       0
 ---------------------------------------------------------------------------------
 Estimated maximum stack depth 8
 ---------------------------------------------------------------------------------

 Call Graph Graphs:

 _main (ROOT)
   _app_init
     _interrupt_INTx_Init
       _interrupt_INTx_Disable
       _interrupt_INTx_Enable
       _interrupt_INTx_clear_flag
       _interrupt_INTx_edge_set
       _interrupt_INTx_pin_cfg
         _gpio_pin_direction_init
       _interrupt_INTx_set_interrupt_handler
         _INT0_set_interrupt_handler
         _INT1_set_interrupt_handler
         _INT2_set_interrupt_handler
     _led_init
       _gpio_pin_init
         _gpio_pin_direction_init
         _gpio_pin_write
   _eeprom_read_data
   _program_1
     _led_toggle
       _gpio_pin_toggle
   _program_2
     _led_toggle
   _program_3
     _led_off
       _gpio_pin_write

 _General_Interrupt_Manager (ROOT)
   _INT0_ISR
     NULL(Fake) *
     _ISR_INT0_App *
       _eeprom_write_data
   _INT1_ISR
     NULL(Fake) *
     _ISR_INT0_App *
   _INT2_ISR
     NULL(Fake) *
     _ISR_INT0_App *
   _RB4_ISR
   _RB5_ISR
   _RB6_ISR
   _RB7_ISR

 Address spaces:
Name               Size   Autos  Total    Cost      Usage
BIGRAM             F7F      0       0      42        0.0%
EEDATA             400      0       0       0        0.0%
BITBANK14          100      0       0      32        0.0%
BANK14             100      0       0      33        0.0%
BITBANK13          100      0       0      30        0.0%
BANK13             100      0       0      31        0.0%
BITBANK12          100      0       0      28        0.0%
BANK12             100      0       0      29        0.0%
BITBANK11          100      0       0      26        0.0%
BANK11             100      0       0      27        0.0%
BITBANK10          100      0       0      24        0.0%
BANK10             100      0       0      25        0.0%
BITBANK9           100      0       0      22        0.0%
BANK9              100      0       0      23        0.0%
BITBANK8           100      0       0      20        0.0%
BANK8              100      0       0      21        0.0%
BITBANK7           100      0       0      18        0.0%
BANK7              100      0       0      19        0.0%
BITBANK6           100      0       0      16        0.0%
BANK6              100      0       0      17        0.0%
BITBANK5           100      0       0      14        0.0%
BANK5              100      0       0      15        0.0%
BITBANK4           100      0       0      12        0.0%
BANK4              100      0       0      13        0.0%
BITBANK3           100      0       0      10        0.0%
BANK3              100      0       0      11        0.0%
BITBANK2           100      0       0       8        0.0%
BANK2              100      0       0       9        0.0%
BITBANK1           100      0       0       6        0.0%
BANK1              100      0       0       7        0.0%
BITBANK15           80      0       0      34        0.0%
BANK15              80      0       0      35        0.0%
BITBANK0            80      0       0       4        0.0%
BANK0               80      0       0       5        0.0%
BITCOMRAM           7E      0       0       0        0.0%
COMRAM              7E     14      5F       1       75.4%
BITBIGSFRhllh       45      0       0      37        0.0%
BITBIGSFRhllll       F      0       0      38        0.0%
BITBIGSFRhh          D      0       0      36        0.0%
BITBIGSFRlh          4      0       0      39        0.0%
BITBIGSFRll          4      0       0      40        0.0%
BIGSFR               0      0       0     200        0.0%
BITSFR               0      0       0     200        0.0%
SFR                  0      0       0     200        0.0%
STACK                0      0       0       2        0.0%
NULL                 0      0       0       0        0.0%
ABS                  0      0      5F      41        0.0%
DATA                 0      0      5F       3        0.0%
CODE                 0      0       0       0        0.0%


Microchip Technology PIC18 Macro Assembler V2.45 build 20230818022343 
Symbol Table                                                                                   Fri Oct 25 22:40:42 2024

                 ?_INT1_set_interrupt_handler 0051                                           l420 197A  
                                         l424 19CE                                           l441 1910  
                                         l602 13D0                                           l434 17C6  
                                         l621 15FC                                           l445 1964  
                                         l438 181E                                           l642 1A2C  
                                         l635 1736                                           l830 18FA  
                                         l814 1750                                           l816 175E  
                                         l825 18A6                                           l817 1768  
                                         l827 18B0                                           l819 17B0  
                                         l828 18B6                                           l861 1842  
                                         l853 14EC                                           l862 1848  
                                         l864 188C                                           l874 1D38  
                                         l786 1AD4                                           l859 1838  
                                         l884 1CF8                                           l869 1C94  
                                         l879 1D18                                           l895 16AA  
                                         _ret 005F                                           tosl 0FFD  
                                         wreg 0FE8                      _RB4_Low_InterruptHandler 0037  
                    interrupt_INTx_Enable@ret 0054                                   led_on@F3067 0048  
                    _RB7_Low_InterruptHandler 002B                       _interrupt_INTx_edge_set 13D2  
                             __end_of_RB4_ISR 1DBE                               __end_of_RB5_ISR 1DA4  
                             __end_of_RB6_ISR 1D8A                               __end_of_RB7_ISR 1D70  
                                        l1203 1B58                                          l1142 1DCE  
                                        l1128 1D54                                          l1136 1CD8  
                                        l1139 1CB6                                          l3200 1D18  
                                        l3210 1CF0                                          l3300 13EA  
                                        l3212 1CF8                                          l3204 1CDA  
                                        l3140 1522                                          l3220 1A00  
                                        l4100 1A5C                                          l3310 142E  
                                        l3302 1404                                          l3206 1CDA  
                                        l3142 152A                                          l3150 15FA  
                                        l3222 1A08                                          l4102 1A6E  
                                        l3320 146E                                          l3312 1448  
                                        l3304 140A                                          l3160 12C0  
                                        l3208 1CEC                                          l3144 1580  
                                        l3136 14EE                                          l3224 1A2A  
                                        l3216 19D0                                          l3240 16AC  
                                        l4104 1A76                                          l3322 1488  
                                        l3314 144E                                          l3306 1424  
                                        l3170 138E                                          l3162 12E0  
                                        l3138 1502                                          l3218 19E0  
                                        l3242 16C0                                          l3252 188E  
                                        l4140 14CC                                          l3324 148E  
                                        l3316 1468                                          l3308 1426  
                                        l3332 14AE                                          l3164 12E8  
                                        l3172 13CE                                          l3180 1D1A  
                                        l3148 15D0                                          l3244 16E0  
                                        l3500 190C                                          l3254 189E  
                                        l4142 186C                                          l3326 14A8  
                                        l3334 14EA                                          l3166 133E  
                                        l3158 12AC                                          l3342 1C70  
                                        l3182 1D1A                                          l4134 15E4  
                                        l3246 16E8                                          l3502 1914  
                                        l3256 18A8                                          l3264 18BC  
                                        l4144 1790                                          l3344 1C80  
                                        l3184 1D2C                                          l3192 1CFA  
                                        l4136 168A                                          l3360 1634  
                                        l3352 15FE                                          l3520 1AC0  
                                        l3512 1A82                                          l3600 1B46  
                                        l3248 1734                                          l3504 194A  
                                        l4146 18DA                                          l3266 18F8  
                                        l3274 1820                                          l4138 13B8  
                                        l3346 1C88                                          l3186 1D30  
                                        l3194 1CFA                                          l3362 1638  
                                        l3354 160E                                          l3370 166C  
                                        l3522 1AC8                                          l3514 1A92  
                                        l3602 1B48                                          l3506 194C  
                                        l3610 1CB8                                          l3380 1738  
                                        l3276 1830                                          l3348 1C92  
                                        l3188 1D38                                          l3196 1D0C  
                                        l3364 1652                                          l3356 1616  
                                        l3372 16A8                                          l3524 1AD2  
                                        l3516 1A9A                                          l3604 1B52  
                                        l3508 195C                                          l3612 1CC0  
                                        l4092 1A2E                                          l3382 1748  
                                        l3278 183A                                          l3286 184E  
                                        l3198 1D10                                          l3358 162C  
                                        l3518 1AB8                                          l3470 1966  
                                        l3606 1B56                                          l3614 1C96  
                                        l4094 1A32                                          l3384 1756  
                                        l3392 1772                                          l3288 188A  
                                        l3296 13D2                                          l3480 19C6  
                                        l3472 1976                                          l3616 1C9E  
                                        l4096 1A44                                          l3394 17AE  
                                        l3298 13E2                                          l3474 197E  
                                        l3490 1800                                          l3618 1DBE  
                                        l4098 1A54                                          l3476 19B4  
                                        l3492 1802                                          l3484 17B2  
                                        l3478 19B6                                          l3582 1D3A  
                                        l3590 1B3A                                          l3494 1812  
                                        l3486 17C2                                          l3592 1B3E  
                                        l3584 1B1C                                          l3488 17CA  
                                        l3594 1B40                                          l3586 1B2C  
                                        l3498 18FC                                          l3596 1B42  
                                        l3588 1B34                                          l3598 1B44  
                                        STR_1 1011                                          _LATA 0F89  
                                        u2070 1B2C                                          _LATB 0F8A  
                                        u2071 1B28                                          _LATC 0F8B  
                                        u1600 12E0                                          _LATD 0F8C  
                                        u1601 12DC                                          _LATE 0F8D  
                                        u1630 13A4                                          u1614 1306  
                                        u1550 1502                                          u1710 16C0  
                                        u1631 139E                                          u1615 1302  
                                        u1551 14FE                                          u1711 16BC  
                                        u1800 1468                                          u1640 13A6  
                                        u1624 135C                                          u1560 1522  
                                        u1720 16E0                                          u1801 1464  
                                        u1625 1358                                          u1561 151E  
                                        u1721 16DC                                          u1810 1488  
                                        u1650 1D2C                                          u1811 1484  
                                        u1651 1D28                                          u1740 189E  
                                        u1820 14A8                                          u1660 1D0C  
                                        u1900 1976                                          u1741 189A  
                                        u1821 14A4                                          u1661 1D08  
                                        u1901 1972                                          u1750 1830  
                                        u1590 12C0                                          u1830 1C80  
                                        u1670 1CEC                                          u1574 1548  
                                        u1734 1706                                          u1751 182C  
                                        u1591 12BC                                          u1831 1C7C  
                                        u1671 1CE8                                          u1575 1544  
                                        u1735 1702                                          u1760 13E2  
                                        u1840 160E                                          u1584 159E  
                                        u1680 19E0                                          u1920 17C2  
                                        u1761 13DE                                          u1841 160A  
                                        u1585 159A                                          u1681 19DC  
                                        u1921 17BE                                          u1850 1748  
                                        u1770 1404                                          u1690 1A00  
                                        u1851 1744                                          u1771 1400  
                                        u1691 19FC                                          u1915 19C4  
                                        u1780 1424                                          u1940 190C  
                                        u2820 1A54                                          u1781 1420  
                                        u1917 19C6                                          u1941 1908  
                                        u2821 1A50                                          u1790 1448  
                                        u2830 1A6E                                          u1791 1444  
                                        u1935 1810                                          u2831 1A6A  
                                        u1960 1A92                                          u1961 1A8E  
                                        u1937 1812                                          u1955 195A  
                                        u1957 195C                                          u2847 1CA8  
                                        u2857 1CCA             __end_of_interrupt_INTx_clear_flag 188E  
                                        _main 1A2E                                          fsr2h 0FDA  
                                        indf2 0FDF                                          fsr1l 0FE1  
                                        fsr2l 0FD9                      ?_gpio_pin_direction_init 0051  
                                        btemp 0060                                          prodl 0FF3  
                                        start 000E                                   led_init@led 005C  
interrupt_INTx_set_interrupt_handler@intr_obj 0053                                  ___param_bank 0000  
          __end_of_INT2_set_interrupt_handler 1CFA                    _INT2_set_interrupt_handler 1CDA  
                            __end_of_INT0_ISR 1C1A                              __end_of_INT1_ISR 1BEC  
                            __end_of_INT2_ISR 1BBE                                         ?_main 004B  
                           gpio_pin_write@ret 0058                                         _EEADR 0FA9  
                                led_off@F3072 0047                                         i2l900 1C18  
                                       i2l910 1BBC                                         i2l920 1DBC  
                                       i2l905 1BEA                                         i2l930 1DA2  
                                       i2l940 1D88                                         i2l950 1D6E  
                                       _PORTA 0F80                                         _PORTB 0F81  
                                       _PORTC 0F82                                         _PORTD 0F83  
                                       _PORTE 0F84                                         _TRISA 0F92  
                                       _TRISB 0F93                                         _TRISC 0F94  
                                       _TRISD 0F95                                         _TRISE 0F96  
                            ?_gpio_pin_toggle 0051                               __end_of_led_off 1820  
                                       _led_1 002A                                         _led_2 0029  
                                       pclath 0FFA                                         pclatu 0FFB  
                                       tablat 0FF5                                         ttemp5 0061  
                                       ttemp6 0064                                         ttemp7 0068  
                                       status 0FD8                                         wtemp8 0061  
                          gpio_pin_toggle@ret 0056             interrupt_INTx_clear_flag@intr_obj 0051  
                             __initialization 1B5A                                  RB4_ISR@state 004B  
                                __end_of_main 1A82                                  RB5_ISR@state 004B  
                                      ??_main 005F                                 __activetblptr 0003  
                                   ??_RB4_ISR 004B                                     ??_RB5_ISR 004B  
                                   ??_RB6_ISR 004B                                     ??_RB7_ISR 004B  
                   ??_interrupt_INTx_edge_set 0052                    ?_General_Interrupt_Manager 004B  
                   _RB5_High_InterruptHandler 0035                                  RB6_ISR@state 004B  
                                      _EEADRH 0FAA                               fp__ISR_INT0_App 0000  
                                      _EEDATA 0FA8                                        _EECON2 0FA7  
                                      i2l1020 1040                                        i2l1030 114C  
                                      i2l1022 1060                                        i2l1032 1190  
                                      i2l1024 1080                                        i2l1041 12A0  
                                      i2l1034 11D4                                        i2l1026 10C4  
                                      i2l1036 1218                                        i2l1028 1108  
                                      i2l1133 1C44                                        i2l1038 125C  
                                      i2l4000 102E                                        i2l2410 1D72  
                                      i2l4010 107C                                        i2l4002 103C  
                                      i2l1195 1AFE                                        i2l2404 1DA2  
                                      i2l2412 1D74                                        i2l4020 10BE  
                                      i2l4012 108E                                        i2l4004 104E  
                                      i2l1197 1B0C                                        i2l1198 1B1A  
                                      i2l4030 1102                                        i2l4022 10D2  
                                      i2l4014 109C                                        i2l4006 105C  
                                      i2l2432 1D6E                                        i2l2424 1D58  
                                      i2l4040 1146                                        i2l4032 1116  
                                      i2l4024 10E0                                        i2l4016 10AA  
                                      i2l4008 106E                                        i2l3410 1AE8  
                                      i2l3402 1AD6                                        i2l2418 1D88  
                                      i2l2426 1D5A                                        i2l4050 118A  
                                      i2l4042 115A                                        i2l4034 1124  
                                      i2l4026 10EE                                        i2l4018 10BA  
                                      i2l3420 1AF4                                        i2l3412 1AEC  
                                      i2l3404 1AD6                                        i2l4060 11CE  
                                      i2l4052 119E                                        i2l4044 1168  
                                      i2l4036 1132                                        i2l4028 10FE  
                                      i2l3422 1AF8                                        i2l3414 1AEE  
                                      i2l3406 1ADE                                        i2l2390 1DBC  
                                      i2l2382 1DA6                                        i2l4070 1212  
                                      i2l4062 11E2                                        i2l4054 11AC  
                                      i2l4046 1176                                        i2l4038 1142  
                                      i2l3424 1AFC                                        i2l3416 1AF0  
                                      i2l3408 1AE4                                        i2l2384 1DA8  
                                      i2l4080 1256                                        i2l4072 1226  
                                      i2l4064 11F0                                        i2l4056 11BA  
                                      i2l4048 1186                                        i2l3426 1B18  
                                      i2l3418 1AF2                                        i2l3530 1C1C  
                                      i2l4090 129A                                        i2l4082 126A  
                                      i2l4074 1234                                        i2l4066 11FE  
                                      i2l4058 11CA                                        i2l3532 1C2E  
                                      i2l2396 1D8C                                        i2l4084 1278  
                                      i2l4076 1242                                        i2l4068 120E  
                                      i2l3534 1C32                                        i2l2398 1D8E  
                                      i2l4086 1286                                        i2l4078 1252  
                                      i2l3528 1C1A                                        i2l4088 1296  
                                      i2l3570 1BBE                                        i2l3564 1BEC  
                                      i2l3572 1BC0                                        i2l3580 1BA4  
                                      i2l3566 1BEE                                        i2l3574 1BD2  
                                      i2l3568 1C00                                        i2l3576 1B90  
                                      i2l3578 1B92                                        i2l3998 1020  
                            _eeprom_read_data 1B1C                           eeprom_read_data@ret 0054  
                                RB7_ISR@state 004B                              __end_of_app_init 1D56  
                            __end_of_led_init 19D0                  ??_INT0_set_interrupt_handler 0053  
                               _gpio_pin_init 19D0                                        clear_0 1B80  
                                      isa$std 0001                                     ??_led_off 005A  
                               led_init@F3062 0049                                  __pdataCOMRAM 0001  
                 interrupt_INTx_Init@intr_obj 005A                                  __mediumconst 0000  
                                      tblptrh 0FF7                                        tblptrl 0FF6  
                                      tblptru 0FF8             __end_of_General_Interrupt_Manager 12AC  
                       _interrupt_INTx_Enable 1738                                    __accesstop 0080  
                     __end_of__initialization 1B86                                     ?_INT0_ISR 004B  
                                   ?_INT1_ISR 004B                                     ?_INT2_ISR 004B  
     interrupt_INTx_set_interrupt_handler@ret 0056                                 ?_ISR_INT0_App 004B  
                    ??_interrupt_INTx_Disable 0052                                 ___rparam_used 0001  
             __end_of_interrupt_INTx_edge_set 14EE                                __pcstackCOMRAM 004B  
                      interrupt_INTx_Init@ret 005B                                ?_gpio_pin_init 0059  
                    ??_interrupt_INTx_pin_cfg 0059                                ??_ISR_INT0_App 004F  
                       _INT0_InterruptHandler 003F                                    ??_INT0_ISR 004F  
                                  ??_INT1_ISR 004F                                    ??_INT2_ISR 004F  
                                  __pnvCOMRAM 005F                  interrupt_INTx_clear_flag@ret 0054  
                 ?_INT2_set_interrupt_handler 0051                                 led_toggle@led 0057  
                             led_toggle@F3077 0046                                       _RB4_ISR 1DA4  
                                     _RB5_ISR 1D8A                                       _RB6_ISR 1D70  
                                     _RB7_ISR 1D56                          eeprom_read_data@addr 0051  
                        eeprom_read_data@data 0053                 interrupt_INTx_Enable@intr_obj 0051  
                    _RB6_Low_InterruptHandler 002F                                       i2u53_40 1DB8  
                                     i2u53_41 1DB4                                       i2u54_40 1D9E  
                                     i2u54_41 1D9A                                       i2u55_40 1D84  
                                     i2u55_41 1D80                                       i2u56_40 1D6A  
                                     i2u56_41 1D66                                     ?_app_init 004B  
                      ?_interrupt_INTx_Enable 0051                                     ?_led_init 005C  
                                  _led_toggle 18FC                     interrupt_INTx_pin_cfg@ret 0059  
                  ?_interrupt_INTx_clear_flag 0051                                       __Hparam 0000  
                                     __Lparam 0000                               ??_gpio_pin_init 005A  
          __end_of_INT0_set_interrupt_handler 1D3A                    _INT0_set_interrupt_handler 1D1A  
                                __psmallconst 1000                                       __pcinit 1B5A  
                    __end_of_eeprom_read_data 1B5A                                       __ramtop 1000  
                               relay_on@F3062 0044                                       __ptext0 1A2E  
                                     __ptext1 1DBE                                       __ptext2 17B2  
                                     __ptext3 1C96                                       __ptext4 1CB8  
                                     __ptext5 18FC                                       __ptext6 16AC  
                                     __ptext7 1B1C                                       __ptext8 1D3A  
                                     __ptext9 1966                                       _led_off 17B2  
                              _gpio_pin_write 14EE                                       _lat_reg 000B  
                 ??_General_Interrupt_Manager 004F                                    ??_app_init 005F  
                              __pintcode_body 1016                                    ??_led_init 005D  
                        end_of_initialization 1B86              gpio_pin_direction_init@pin_confg 0051  
                                     int_func 1016                                led_off@pin_cfg 005B  
                           __end_of_program_1 1CDA                             __end_of_program_2 1CB8  
                           __end_of_program_3 1DD0                        gpio_pin_init@pin_confg 0059  
                                     postdec1 0FE5                                       postdec2 0FDD  
                                     postinc0 0FEE                                       postinc2 0FDE  
                      __end_of_gpio_pin_write 15FE                         _INT1_InterruptHandler 003D  
                                   _PORTBbits 0F81                             led_toggle@pin_cfg 0059  
                        __end_of_ISR_INT0_App 1C46                        _interrupt_INTx_Disable 188E  
                           _eeprom_write_data 1AD6                            ?_eeprom_write_data 004B  
                   _RB6_High_InterruptHandler 0031                              gpio_pin_init@ret 005B  
                                 ?_led_toggle 0057                           ??_eeprom_write_data 004E  
                     gpio_pin_write@pin_confg 0051                       gpio_pin_write@pin_state 0052  
                                  led_off@led 0059                     _General_Interrupt_Manager 0008  
                      _interrupt_INTx_pin_cfg 1C70                             relay_toggle@F3072 0042  
                ??_INT1_set_interrupt_handler 0053                       _gpio_pin_direction_init 12AC  
                               __pidataCOMRAM 1C46                               ?_gpio_pin_write 0051  
                    ?_interrupt_INTx_edge_set 0051                     __end_of_eeprom_write_data 1B1C  
                         _interrupt_INTx_Init 1A82                           start_initialization 1B5A  
                        ?_interrupt_INTx_Init 005A                             ??_gpio_pin_toggle 0052  
             interrupt_INTx_edge_set@intr_obj 0051                                      ?_RB4_ISR 004B  
                                    ?_RB5_ISR 004B                                      ?_RB6_ISR 004B  
                                    ?_RB7_ISR 004B                       ??_interrupt_INTx_Enable 0052  
                                 __pbssCOMRAM 002B                         _INT2_InterruptHandler 003B  
                       ??_interrupt_INTx_Init 005B                   ??_interrupt_INTx_clear_flag 0052  
                   interrupt_INTx_Disable@ret 0054                     ??_gpio_pin_direction_init 0052  
                                   __pintcode 0008                   ?_INT0_set_interrupt_handler 0051  
              interrupt_INTx_pin_cfg@intr_obj 0058                             ?_eeprom_read_data 0051  
                                    ?_led_off 0059                                   __smallconst 1000  
                          ??_eeprom_read_data 0054  __end_of_interrupt_INTx_set_interrupt_handler 16AC  
      ??_interrupt_INTx_set_interrupt_handler 0054         ?_interrupt_INTx_set_interrupt_handler 0053  
        _interrupt_INTx_set_interrupt_handler 15FE                      _RB5_Low_InterruptHandler 0033  
              interrupt_INTx_Disable@intr_obj 0051   INT2_set_interrupt_handler@interrupt_handler 0051  
 INT1_set_interrupt_handler@interrupt_handler 0051   INT0_set_interrupt_handler@interrupt_handler 0051  
                                    _INT0_ISR 1BEC                                      _INT1_ISR 1BBE  
                                    _INT2_ISR 1B90                                      _RB4_Flag 0022  
                                    _RB5_Flag 0021                                      _RB6_Flag 0020  
                              _keypad_buttons 1001                                      _RB7_Flag 001F  
                                 _eeprom_data 0041                                  _ISR_INT0_App 1C1A  
                                    i2u201_40 1C00                                      i2u201_41 1BFC  
                                    i2u202_48 1C06                                      i2u203_40 1BD2  
                                    i2u202_49 1C18                                      i2u203_41 1BCE  
                                    i2u204_48 1BD8                                      i2u205_40 1BA4  
                                    i2u204_49 1BEA                                      i2u205_41 1BA0  
                                    i2u206_48 1BAA                                      i2u206_49 1BBC  
                                    i2u250_40 108E                                      i2u250_41 108A  
                                    i2u251_40 109C                                      i2u251_41 1098  
                                    i2u260_40 1132                                      i2u252_40 10AA  
                                    i2u244_40 102E                                      i2u260_41 112E  
                                    i2u252_41 10A6                                      i2u244_41 102A  
                                    i2u261_40 1142                                      i2u253_40 10BA  
                                    i2u245_40 103C                                      i2u261_41 113E  
                                    i2u253_41 10B6                                      i2u245_41 1038  
                                    i2u270_40 11E2                                      i2u262_40 115A  
                                    i2u254_40 10D2                                      i2u246_40 104E  
                                    i2u270_41 11DE                                      i2u262_41 1156  
                                    i2u254_41 10CE                                      i2u246_41 104A  
                                    i2u271_40 11F0                                      i2u263_40 1168  
                                    i2u255_40 10E0                                      i2u247_40 105C  
                                    i2u271_41 11EC                                      i2u263_41 1164  
                                    i2u255_41 10DC                                      i2u247_41 1058  
                                    i2u280_40 1286                                      i2u272_40 11FE  
                                    i2u264_40 1176                                      i2u256_40 10EE  
                                    i2u248_40 106E                                      i2u280_41 1282  
                                    i2u272_41 11FA                                      i2u264_41 1172  
                                    i2u256_41 10EA                                      i2u248_41 106A  
                                    i2u281_40 1296                                      i2u273_40 120E  
                                    i2u265_40 1186                                      i2u257_40 10FE  
                                    i2u249_40 107C                                      i2u281_41 1292  
                                    i2u273_41 120A                                      i2u265_41 1182  
                                    i2u257_41 10FA                                      i2u249_41 1078  
                                    i2u186_40 1B0C                                      i2u274_40 1226  
                                    i2u266_40 119E                                      i2u258_40 1116  
                                    i2u186_41 1B08                                      i2u274_41 1222  
                                    i2u266_41 119A                                      i2u258_41 1112  
                                    i2u275_40 1234                                      i2u267_40 11AC  
                                    i2u259_40 1124                                      i2u275_41 1230  
                                    i2u267_41 11A8                                      i2u259_41 1120  
                                    i2u187_45 1B16                                      i2u187_46 1B18  
                                    i2u276_40 1242                                      i2u268_40 11BA  
                                    i2u276_41 123E                                      i2u268_41 11B6  
                                    i2u197_40 1C2E                                      i2u277_40 1252  
                                    i2u269_40 11CA                                      i2u197_41 1C2A  
                                    i2u277_41 124E                                      i2u269_41 11C6  
                                    i2u278_40 126A                                      i2u278_41 1266  
                                    i2u279_40 1278                                      i2u279_41 1274  
          __end_of_INT1_set_interrupt_handler 1D1A                    _INT1_set_interrupt_handler 1CFA  
                       __end_of_gpio_pin_init 1A2E                       ?_interrupt_INTx_Disable 0051  
                                   _program_1 1CB8                                     _program_2 1C96  
                                   _program_3 1DBE                     _interrupt_INTx_clear_flag 1820  
             __end_of_gpio_pin_direction_init 13D2                               relay_init@F3057 0045  
                                 _INTCON2bits 0FF1                                   _INTCON3bits 0FF0  
                                   copy_data0 1B6E                                  ??_led_toggle 0058  
                      __end_of_keypad_buttons 1011                       ?_interrupt_INTx_pin_cfg 0058  
                                  _EECON1bits 0FA6                                      __Hrparam 0000  
                                    __Lrparam 0000                              ??_gpio_pin_write 0053  
              __end_of_interrupt_INTx_Disable 18FC                                    ?_program_1 004B  
                                  ?_program_2 004B                                    ?_program_3 004B  
                          __end_of_led_toggle 1966                     _RB4_High_InterruptHandler 0039  
                                    __ptext10 19D0                                      __ptext11 14EE  
                                    __ptext20 1820                                      __ptext12 1A82  
                                    __ptext21 1738                                      __ptext13 15FE  
                                    __ptext30 1BEC                                      __ptext22 188E  
                                    __ptext14 1CDA                                      __ptext31 1C1A  
                                    __ptext15 1CFA                                      __ptext32 1AD6  
                                    __ptext24 1D56                                      __ptext16 1D1A  
                                    __ptext33 0000                                      __ptext25 1D70  
                                    __ptext17 1C70                                      __ptext26 1D8A  
                                    __ptext18 12AC                                      __ptext27 1DA4  
                                    __ptext19 13D2                                      __ptext28 1B90  
                                    __ptext29 1BBE                                      _app_init 1D3A  
                   _RB7_High_InterruptHandler 002D                                      _int0_obj 0023  
                             _gpio_pin_toggle 16AC                                      _led_init 1966  
              __end_of_interrupt_INTx_pin_cfg 1C96                                relay_off@F3067 0043  
                                    isa$xinst 0000                                      int$flags 0060  
                                    _port_reg 0001                  ??_INT2_set_interrupt_handler 0053  
                  interrupt_INTx_edge_set@ret 0054                                      _tris_reg 0015  
                                  _INTCONbits 0FF2                 __end_of_interrupt_INTx_Enable 17B2  
                                    intlevel2 0000                                 _prog_selected 004A  
                    gpio_pin_toggle@pin_confg 0051                                   ??_program_1 005A  
                                 ??_program_2 005A                                   ??_program_3 005C  
                eeprom_write_data@intr_status 004E                       __end_of_gpio_pin_toggle 1738  
                  gpio_pin_direction_init@ret 0057                   __end_of_interrupt_INTx_Init 1AD6  
                       eeprom_write_data@addr 004B                         eeprom_write_data@data 004D  
                             led_init@pin_cfg 005E  
